
AVR.elf:     file format elf32-avr

Sections:
Idx Name          Size      VMA       LMA       File off  Algn
  0 .data         0000051e  00800100  00002aa2  00002b36  2**0
                  CONTENTS, ALLOC, LOAD, DATA
  1 .text         00002aa2  00000000  00000000  00000094  2**1
                  CONTENTS, ALLOC, LOAD, READONLY, CODE
  2 .bss          00000061  0080061e  0080061e  00003054  2**0
                  ALLOC
  3 .comment      00000030  00000000  00000000  00003054  2**0
                  CONTENTS, READONLY
  4 .debug_aranges 00000320  00000000  00000000  00003084  2**0
                  CONTENTS, READONLY, DEBUGGING
  5 .debug_info   000031e7  00000000  00000000  000033a4  2**0
                  CONTENTS, READONLY, DEBUGGING
  6 .debug_abbrev 00000d39  00000000  00000000  0000658b  2**0
                  CONTENTS, READONLY, DEBUGGING
  7 .debug_line   000049d3  00000000  00000000  000072c4  2**0
                  CONTENTS, READONLY, DEBUGGING
  8 .debug_frame  00000824  00000000  00000000  0000bc98  2**2
                  CONTENTS, READONLY, DEBUGGING
  9 .debug_str    00011186  00000000  00000000  0000c4bc  2**0
                  CONTENTS, READONLY, DEBUGGING
 10 .debug_loc    00001e9b  00000000  00000000  0001d642  2**0
                  CONTENTS, READONLY, DEBUGGING
 11 .debug_ranges 00000290  00000000  00000000  0001f4dd  2**0
                  CONTENTS, READONLY, DEBUGGING
 12 .debug_macro  0000162a  00000000  00000000  0001f76d  2**0
                  CONTENTS, READONLY, DEBUGGING

Disassembly of section .text:

00000000 <__vectors>:
       0:	4c c0       	rjmp	.+152    	; 0x9a <__ctors_end>
       2:	00 00       	nop
       4:	68 c0       	rjmp	.+208    	; 0xd6 <__bad_interrupt>
       6:	00 00       	nop
       8:	0c 94 83 0f 	jmp	0x1f06	; 0x1f06 <__vector_2>
       c:	64 c0       	rjmp	.+200    	; 0xd6 <__bad_interrupt>
       e:	00 00       	nop
      10:	62 c0       	rjmp	.+196    	; 0xd6 <__bad_interrupt>
      12:	00 00       	nop
      14:	60 c0       	rjmp	.+192    	; 0xd6 <__bad_interrupt>
      16:	00 00       	nop
      18:	5e c0       	rjmp	.+188    	; 0xd6 <__bad_interrupt>
      1a:	00 00       	nop
      1c:	5c c0       	rjmp	.+184    	; 0xd6 <__bad_interrupt>
      1e:	00 00       	nop
      20:	5a c0       	rjmp	.+180    	; 0xd6 <__bad_interrupt>
      22:	00 00       	nop
      24:	58 c0       	rjmp	.+176    	; 0xd6 <__bad_interrupt>
      26:	00 00       	nop
      28:	56 c0       	rjmp	.+172    	; 0xd6 <__bad_interrupt>
      2a:	00 00       	nop
      2c:	54 c0       	rjmp	.+168    	; 0xd6 <__bad_interrupt>
      2e:	00 00       	nop
      30:	52 c0       	rjmp	.+164    	; 0xd6 <__bad_interrupt>
      32:	00 00       	nop
      34:	50 c0       	rjmp	.+160    	; 0xd6 <__bad_interrupt>
      36:	00 00       	nop
      38:	4e c0       	rjmp	.+156    	; 0xd6 <__bad_interrupt>
      3a:	00 00       	nop
      3c:	0c 94 31 0e 	jmp	0x1c62	; 0x1c62 <__vector_15>
      40:	4a c0       	rjmp	.+148    	; 0xd6 <__bad_interrupt>
      42:	00 00       	nop
      44:	48 c0       	rjmp	.+144    	; 0xd6 <__bad_interrupt>
      46:	00 00       	nop
      48:	46 c0       	rjmp	.+140    	; 0xd6 <__bad_interrupt>
      4a:	00 00       	nop
      4c:	44 c0       	rjmp	.+136    	; 0xd6 <__bad_interrupt>
      4e:	00 00       	nop
      50:	42 c0       	rjmp	.+132    	; 0xd6 <__bad_interrupt>
      52:	00 00       	nop
      54:	40 c0       	rjmp	.+128    	; 0xd6 <__bad_interrupt>
      56:	00 00       	nop
      58:	3e c0       	rjmp	.+124    	; 0xd6 <__bad_interrupt>
      5a:	00 00       	nop
      5c:	3c c0       	rjmp	.+120    	; 0xd6 <__bad_interrupt>
      5e:	00 00       	nop
      60:	3a c0       	rjmp	.+116    	; 0xd6 <__bad_interrupt>
      62:	00 00       	nop
      64:	38 c0       	rjmp	.+112    	; 0xd6 <__bad_interrupt>
      66:	00 00       	nop
      68:	36 c0       	rjmp	.+108    	; 0xd6 <__bad_interrupt>
      6a:	00 00       	nop
      6c:	34 c0       	rjmp	.+104    	; 0xd6 <__bad_interrupt>
      6e:	00 00       	nop
      70:	32 c0       	rjmp	.+100    	; 0xd6 <__bad_interrupt>
      72:	00 00       	nop
      74:	30 c0       	rjmp	.+96     	; 0xd6 <__bad_interrupt>
      76:	00 00       	nop
      78:	2e c0       	rjmp	.+92     	; 0xd6 <__bad_interrupt>
      7a:	00 00       	nop
      7c:	2c c0       	rjmp	.+88     	; 0xd6 <__bad_interrupt>
      7e:	00 00       	nop
      80:	2a c0       	rjmp	.+84     	; 0xd6 <__bad_interrupt>
      82:	00 00       	nop
      84:	28 c0       	rjmp	.+80     	; 0xd6 <__bad_interrupt>
      86:	00 00       	nop
      88:	26 c0       	rjmp	.+76     	; 0xd6 <__bad_interrupt>
      8a:	00 00       	nop
      8c:	0a 12       	cpse	r0, r26
      8e:	29 12       	cpse	r2, r25
      90:	48 12       	cpse	r4, r24
      92:	67 12       	cpse	r6, r23
      94:	86 12       	cpse	r8, r22
      96:	a5 12       	cpse	r10, r21
      98:	c4 12       	cpse	r12, r20

0000009a <__ctors_end>:
      9a:	11 24       	eor	r1, r1
      9c:	1f be       	out	0x3f, r1	; 63
      9e:	cf ef       	ldi	r28, 0xFF	; 255
      a0:	d0 e1       	ldi	r29, 0x10	; 16
      a2:	de bf       	out	0x3e, r29	; 62
      a4:	cd bf       	out	0x3d, r28	; 61

000000a6 <__do_copy_data>:
      a6:	16 e0       	ldi	r17, 0x06	; 6
      a8:	a0 e0       	ldi	r26, 0x00	; 0
      aa:	b1 e0       	ldi	r27, 0x01	; 1
      ac:	e2 ea       	ldi	r30, 0xA2	; 162
      ae:	fa e2       	ldi	r31, 0x2A	; 42
      b0:	00 e0       	ldi	r16, 0x00	; 0
      b2:	0b bf       	out	0x3b, r16	; 59
      b4:	02 c0       	rjmp	.+4      	; 0xba <__do_copy_data+0x14>
      b6:	07 90       	elpm	r0, Z+
      b8:	0d 92       	st	X+, r0
      ba:	ae 31       	cpi	r26, 0x1E	; 30
      bc:	b1 07       	cpc	r27, r17
      be:	d9 f7       	brne	.-10     	; 0xb6 <__do_copy_data+0x10>

000000c0 <__do_clear_bss>:
      c0:	26 e0       	ldi	r18, 0x06	; 6
      c2:	ae e1       	ldi	r26, 0x1E	; 30
      c4:	b6 e0       	ldi	r27, 0x06	; 6
      c6:	01 c0       	rjmp	.+2      	; 0xca <.do_clear_bss_start>

000000c8 <.do_clear_bss_loop>:
      c8:	1d 92       	st	X+, r1

000000ca <.do_clear_bss_start>:
      ca:	af 37       	cpi	r26, 0x7F	; 127
      cc:	b2 07       	cpc	r27, r18
      ce:	e1 f7       	brne	.-8      	; 0xc8 <.do_clear_bss_loop>
      d0:	03 d0       	rcall	.+6      	; 0xd8 <main>
      d2:	0c 94 4f 15 	jmp	0x2a9e	; 0x2a9e <_exit>

000000d6 <__bad_interrupt>:
      d6:	94 cf       	rjmp	.-216    	; 0x0 <__vectors>

000000d8 <main>:

int main (void)
{

	/* Insert system clock initialization code here (sysclk_init()). */
	buttons_init(); 
      d8:	0e 94 44 0f 	call	0x1e88	; 0x1e88 <buttons_init>
	lcd12864_init();
      dc:	0e 94 90 11 	call	0x2320	; 0x2320 <lcd12864_init>
	init_IO();
      e0:	b1 d6       	rcall	.+3426   	; 0xe44 <init_IO>
	emv_ports_init();
      e2:	b4 d5       	rcall	.+2920   	; 0xc4c <emv_ports_init>
	Timer0_Init();
      e4:	0e 94 0c 0e 	call	0x1c18	; 0x1c18 <Timer0_Init>
	ADC_init();
      e8:	20 d5       	rcall	.+2624   	; 0xb2a <ADC_init>
	Menu_Init();
      ea:	0e 94 2a 0d 	call	0x1a54	; 0x1a54 <Menu_Init>

	while(1){
	Menu_Poll();
      ee:	0e 94 4e 0d 	call	0x1a9c	; 0x1a9c <Menu_Poll>
      f2:	fd cf       	rjmp	.-6      	; 0xee <main+0x16>

000000f4 <Fun_UnitChange>:
	}


}

float Fun_UnitChange(uint16_t ADValue){
      f4:	bc 01       	movw	r22, r24
	float result; 
	if(PD_Unit == UNIT_PA)
      f6:	80 91 0c 01 	lds	r24, 0x010C
      fa:	82 30       	cpi	r24, 0x02	; 2
      fc:	59 f4       	brne	.+22     	; 0x114 <Fun_UnitChange+0x20>
		result = (float)ADValue * UNIT_CONV_PA;
      fe:	80 e0       	ldi	r24, 0x00	; 0
     100:	90 e0       	ldi	r25, 0x00	; 0
     102:	0e 94 ee 13 	call	0x27dc	; 0x27dc <__floatunsisf>
     106:	24 e4       	ldi	r18, 0x44	; 68
     108:	3b e8       	ldi	r19, 0x8B	; 139
     10a:	4c e6       	ldi	r20, 0x6C	; 108
     10c:	50 e4       	ldi	r21, 0x40	; 64
     10e:	0c 94 a4 14 	jmp	0x2948	; 0x2948 <__mulsf3>
     112:	08 95       	ret
	else
		result = (float)ADValue * UNIT_CONV_H2O;
     114:	80 e0       	ldi	r24, 0x00	; 0
     116:	90 e0       	ldi	r25, 0x00	; 0
     118:	0e 94 ee 13 	call	0x27dc	; 0x27dc <__floatunsisf>
     11c:	27 ee       	ldi	r18, 0xE7	; 231
     11e:	30 e0       	ldi	r19, 0x00	; 0
     120:	41 ec       	ldi	r20, 0xC1	; 193
     122:	5e e3       	ldi	r21, 0x3E	; 62
     124:	0c 94 a4 14 	jmp	0x2948	; 0x2948 <__mulsf3>
	return result;
	
		
	
}
     128:	08 95       	ret

0000012a <Act_Update_Main>:
#define MODE0 "[X]"
#define MODE1 "[1]"
#define MODE2 "[2]"
#define MODE3 "[3]"

void Act_Update_Main(void){
     12a:	cf 92       	push	r12
     12c:	df 92       	push	r13
     12e:	ef 92       	push	r14
     130:	ff 92       	push	r15
     132:	cf 93       	push	r28
     134:	df 93       	push	r29
	static uint8_t blink_factor = 0;
	blink_factor = !blink_factor;
     136:	81 e0       	ldi	r24, 0x01	; 1
     138:	90 91 26 06 	lds	r25, 0x0626
     13c:	91 11       	cpse	r25, r1
     13e:	80 e0       	ldi	r24, 0x00	; 0
     140:	80 93 26 06 	sts	0x0626, r24
	static uint16_t days=0, hours=0, m=0,s=0;
	char *time="00d00h00m";
	int pressure_diff = (int)ADC_read(PRESSURE);
     144:	81 e0       	ldi	r24, 0x01	; 1
     146:	0a d5       	rcall	.+2580   	; 0xb5c <ADC_read>
     148:	0e 94 bd 13 	call	0x277a	; 0x277a <__fixsfsi>
     14c:	6b 01       	movw	r12, r22
     14e:	7c 01       	movw	r14, r24

	lcd12864_set_pos(0,1);
     150:	61 e0       	ldi	r22, 0x01	; 1
     152:	80 e0       	ldi	r24, 0x00	; 0
     154:	0e 94 fb 0f 	call	0x1ff6	; 0x1ff6 <lcd12864_set_pos>
	switch(PD_Mode){
     158:	80 91 03 01 	lds	r24, 0x0103
     15c:	82 30       	cpi	r24, 0x02	; 2
     15e:	49 f0       	breq	.+18     	; 0x172 <Act_Update_Main+0x48>
     160:	83 30       	cpi	r24, 0x03	; 3
     162:	61 f0       	breq	.+24     	; 0x17c <Act_Update_Main+0x52>
     164:	81 30       	cpi	r24, 0x01	; 1
     166:	79 f4       	brne	.+30     	; 0x186 <Act_Update_Main+0x5c>
		case 1:
		lcd12864_write_str(MODE1);
     168:	86 e2       	ldi	r24, 0x26	; 38
     16a:	94 e0       	ldi	r25, 0x04	; 4
     16c:	0e 94 16 10 	call	0x202c	; 0x202c <lcd12864_write_str>
		break;
     170:	0e c0       	rjmp	.+28     	; 0x18e <Act_Update_Main+0x64>
		case 2:
		lcd12864_write_str(MODE2);
     172:	8a e2       	ldi	r24, 0x2A	; 42
     174:	94 e0       	ldi	r25, 0x04	; 4
     176:	0e 94 16 10 	call	0x202c	; 0x202c <lcd12864_write_str>
		break;
     17a:	09 c0       	rjmp	.+18     	; 0x18e <Act_Update_Main+0x64>
		case 3:
		lcd12864_write_str(MODE3);
     17c:	8e e2       	ldi	r24, 0x2E	; 46
     17e:	94 e0       	ldi	r25, 0x04	; 4
     180:	0e 94 16 10 	call	0x202c	; 0x202c <lcd12864_write_str>
		break;
     184:	04 c0       	rjmp	.+8      	; 0x18e <Act_Update_Main+0x64>
		default:
		lcd12864_write_str(MODE0);
     186:	82 e3       	ldi	r24, 0x32	; 50
     188:	94 e0       	ldi	r25, 0x04	; 4
     18a:	0e 94 16 10 	call	0x202c	; 0x202c <lcd12864_write_str>
		break;
	}
	
	lcd12864_set_pos(4,1);
     18e:	61 e0       	ldi	r22, 0x01	; 1
     190:	84 e0       	ldi	r24, 0x04	; 4
     192:	0e 94 fb 0f 	call	0x1ff6	; 0x1ff6 <lcd12864_set_pos>
	if(swtich_monitoring){
     196:	80 91 27 06 	lds	r24, 0x0627
     19a:	88 23       	and	r24, r24
     19c:	e1 f0       	breq	.+56     	; 0x1d6 <Act_Update_Main+0xac>
	if(Blowing_State){
     19e:	80 91 29 06 	lds	r24, 0x0629
     1a2:	88 23       	and	r24, r24
     1a4:	61 f0       	breq	.+24     	; 0x1be <Act_Update_Main+0x94>
		if(blink_factor)
     1a6:	80 91 26 06 	lds	r24, 0x0626
     1aa:	88 23       	and	r24, r24
     1ac:	21 f0       	breq	.+8      	; 0x1b6 <Act_Update_Main+0x8c>
		lcd12864_write_char(0x0f);
     1ae:	8f e0       	ldi	r24, 0x0F	; 15
     1b0:	0e 94 14 10 	call	0x2028	; 0x2028 <lcd12864_write_char>
     1b4:	13 c0       	rjmp	.+38     	; 0x1dc <Act_Update_Main+0xb2>
		else
		lcd12864_write_char(0x09);
     1b6:	89 e0       	ldi	r24, 0x09	; 9
     1b8:	0e 94 14 10 	call	0x2028	; 0x2028 <lcd12864_write_char>
     1bc:	0f c0       	rjmp	.+30     	; 0x1dc <Act_Update_Main+0xb2>
	}
	else{
		if(blink_factor)
     1be:	80 91 26 06 	lds	r24, 0x0626
     1c2:	88 23       	and	r24, r24
     1c4:	21 f0       	breq	.+8      	; 0x1ce <Act_Update_Main+0xa4>
		lcd12864_write_char(0x07);
     1c6:	87 e0       	ldi	r24, 0x07	; 7
     1c8:	0e 94 14 10 	call	0x2028	; 0x2028 <lcd12864_write_char>
     1cc:	07 c0       	rjmp	.+14     	; 0x1dc <Act_Update_Main+0xb2>
		else
		lcd12864_write_char(0x09);
     1ce:	89 e0       	ldi	r24, 0x09	; 9
     1d0:	0e 94 14 10 	call	0x2028	; 0x2028 <lcd12864_write_char>
     1d4:	03 c0       	rjmp	.+6      	; 0x1dc <Act_Update_Main+0xb2>
		
	}
	}
	else{
		lcd12864_write_char(' ');
     1d6:	80 e2       	ldi	r24, 0x20	; 32
     1d8:	0e 94 14 10 	call	0x2028	; 0x2028 <lcd12864_write_char>
	}
	
	
	
	lcd12864_set_pos(7,1);
     1dc:	61 e0       	ldi	r22, 0x01	; 1
     1de:	87 e0       	ldi	r24, 0x07	; 7
     1e0:	0e 94 fb 0f 	call	0x1ff6	; 0x1ff6 <lcd12864_set_pos>
	if(Alarm_State){
     1e4:	80 91 2a 06 	lds	r24, 0x062A
     1e8:	88 23       	and	r24, r24
     1ea:	61 f0       	breq	.+24     	; 0x204 <Act_Update_Main+0xda>
		if(blink_factor)
     1ec:	80 91 26 06 	lds	r24, 0x0626
     1f0:	88 23       	and	r24, r24
     1f2:	21 f0       	breq	.+8      	; 0x1fc <Act_Update_Main+0xd2>
			lcd12864_write_char(0x21);
     1f4:	81 e2       	ldi	r24, 0x21	; 33
     1f6:	0e 94 14 10 	call	0x2028	; 0x2028 <lcd12864_write_char>
     1fa:	07 c0       	rjmp	.+14     	; 0x20a <Act_Update_Main+0xe0>
		else
			lcd12864_write_char(' ');
     1fc:	80 e2       	ldi	r24, 0x20	; 32
     1fe:	0e 94 14 10 	call	0x2028	; 0x2028 <lcd12864_write_char>
     202:	03 c0       	rjmp	.+6      	; 0x20a <Act_Update_Main+0xe0>
	}
	else{
		lcd12864_write_char(0x02);
     204:	82 e0       	ldi	r24, 0x02	; 2
     206:	0e 94 14 10 	call	0x2028	; 0x2028 <lcd12864_write_char>
		
	}
	
	lcd12864_set_pos(5,2);
     20a:	62 e0       	ldi	r22, 0x02	; 2
     20c:	85 e0       	ldi	r24, 0x05	; 5
     20e:	0e 94 fb 0f 	call	0x1ff6	; 0x1ff6 <lcd12864_set_pos>
	if(PD_Unit == UNIT_PA)
     212:	80 91 0c 01 	lds	r24, 0x010C
     216:	82 30       	cpi	r24, 0x02	; 2
     218:	31 f4       	brne	.+12     	; 0x226 <Act_Update_Main+0xfc>
	lcd12864_write_float(Fun_UnitChange(pressure_diff),0);
     21a:	c6 01       	movw	r24, r12
     21c:	6b df       	rcall	.-298    	; 0xf4 <Fun_UnitChange>
     21e:	40 e0       	ldi	r20, 0x00	; 0
     220:	0e 94 2a 10 	call	0x2054	; 0x2054 <lcd12864_write_float>
     224:	05 c0       	rjmp	.+10     	; 0x230 <Act_Update_Main+0x106>
	else
	lcd12864_write_float(Fun_UnitChange(pressure_diff),1);
     226:	c6 01       	movw	r24, r12
     228:	65 df       	rcall	.-310    	; 0xf4 <Fun_UnitChange>
     22a:	41 e0       	ldi	r20, 0x01	; 1
     22c:	0e 94 2a 10 	call	0x2054	; 0x2054 <lcd12864_write_float>

	lcd12864_set_pos(3,3);
     230:	63 e0       	ldi	r22, 0x03	; 3
     232:	83 e0       	ldi	r24, 0x03	; 3
     234:	0e 94 fb 0f 	call	0x1ff6	; 0x1ff6 <lcd12864_set_pos>
	if(swtich_monitoring){
     238:	80 91 27 06 	lds	r24, 0x0627
     23c:	88 23       	and	r24, r24
     23e:	09 f4       	brne	.+2      	; 0x242 <Act_Update_Main+0x118>
     240:	df c0       	rjmp	.+446    	; 0x400 <Act_Update_Main+0x2d6>
	s++;
     242:	80 91 24 06 	lds	r24, 0x0624
     246:	90 91 25 06 	lds	r25, 0x0625
     24a:	01 96       	adiw	r24, 0x01	; 1
     24c:	90 93 25 06 	sts	0x0625, r25
     250:	80 93 24 06 	sts	0x0624, r24
	if(s==60){
     254:	cc 97       	sbiw	r24, 0x3c	; 60
     256:	69 f4       	brne	.+26     	; 0x272 <Act_Update_Main+0x148>
		m++; s=0;
     258:	80 91 22 06 	lds	r24, 0x0622
     25c:	90 91 23 06 	lds	r25, 0x0623
     260:	01 96       	adiw	r24, 0x01	; 1
     262:	90 93 23 06 	sts	0x0623, r25
     266:	80 93 22 06 	sts	0x0622, r24
     26a:	10 92 25 06 	sts	0x0625, r1
     26e:	10 92 24 06 	sts	0x0624, r1
	}
	if(m==60){
     272:	80 91 22 06 	lds	r24, 0x0622
     276:	90 91 23 06 	lds	r25, 0x0623
     27a:	cc 97       	sbiw	r24, 0x3c	; 60
     27c:	69 f4       	brne	.+26     	; 0x298 <Act_Update_Main+0x16e>
		hours++; m=0;
     27e:	80 91 20 06 	lds	r24, 0x0620
     282:	90 91 21 06 	lds	r25, 0x0621
     286:	01 96       	adiw	r24, 0x01	; 1
     288:	90 93 21 06 	sts	0x0621, r25
     28c:	80 93 20 06 	sts	0x0620, r24
     290:	10 92 23 06 	sts	0x0623, r1
     294:	10 92 22 06 	sts	0x0622, r1
	}
	if(hours == 24){
     298:	40 91 20 06 	lds	r20, 0x0620
     29c:	50 91 21 06 	lds	r21, 0x0621
     2a0:	48 31       	cpi	r20, 0x18	; 24
     2a2:	51 05       	cpc	r21, r1
     2a4:	49 f4       	brne	.+18     	; 0x2b8 <Act_Update_Main+0x18e>
		days++;
     2a6:	80 91 1e 06 	lds	r24, 0x061E
     2aa:	90 91 1f 06 	lds	r25, 0x061F
     2ae:	01 96       	adiw	r24, 0x01	; 1
     2b0:	90 93 1f 06 	sts	0x061F, r25
     2b4:	80 93 1e 06 	sts	0x061E, r24
	}
	time[7]=m%10+'0';
     2b8:	c0 91 22 06 	lds	r28, 0x0622
     2bc:	d0 91 23 06 	lds	r29, 0x0623
     2c0:	e6 e3       	ldi	r30, 0x36	; 54
     2c2:	f4 e0       	ldi	r31, 0x04	; 4
     2c4:	9e 01       	movw	r18, r28
     2c6:	ad ec       	ldi	r26, 0xCD	; 205
     2c8:	bc ec       	ldi	r27, 0xCC	; 204
     2ca:	0e 94 0d 15 	call	0x2a1a	; 0x2a1a <__umulhisi3>
     2ce:	96 95       	lsr	r25
     2d0:	87 95       	ror	r24
     2d2:	96 95       	lsr	r25
     2d4:	87 95       	ror	r24
     2d6:	96 95       	lsr	r25
     2d8:	87 95       	ror	r24
     2da:	9c 01       	movw	r18, r24
     2dc:	22 0f       	add	r18, r18
     2de:	33 1f       	adc	r19, r19
     2e0:	88 0f       	add	r24, r24
     2e2:	99 1f       	adc	r25, r25
     2e4:	88 0f       	add	r24, r24
     2e6:	99 1f       	adc	r25, r25
     2e8:	88 0f       	add	r24, r24
     2ea:	99 1f       	adc	r25, r25
     2ec:	82 0f       	add	r24, r18
     2ee:	93 1f       	adc	r25, r19
     2f0:	9e 01       	movw	r18, r28
     2f2:	28 1b       	sub	r18, r24
     2f4:	39 0b       	sbc	r19, r25
     2f6:	c9 01       	movw	r24, r18
     2f8:	80 5d       	subi	r24, 0xD0	; 208
     2fa:	87 83       	std	Z+7, r24	; 0x07
	time[6]=m/10+'0';
     2fc:	9e 01       	movw	r18, r28
     2fe:	0e 94 0d 15 	call	0x2a1a	; 0x2a1a <__umulhisi3>
     302:	96 95       	lsr	r25
     304:	87 95       	ror	r24
     306:	96 95       	lsr	r25
     308:	87 95       	ror	r24
     30a:	96 95       	lsr	r25
     30c:	87 95       	ror	r24
     30e:	80 5d       	subi	r24, 0xD0	; 208
     310:	86 83       	std	Z+6, r24	; 0x06
	time[4]=hours%10+'0';
     312:	9a 01       	movw	r18, r20
     314:	0e 94 0d 15 	call	0x2a1a	; 0x2a1a <__umulhisi3>
     318:	96 95       	lsr	r25
     31a:	87 95       	ror	r24
     31c:	96 95       	lsr	r25
     31e:	87 95       	ror	r24
     320:	96 95       	lsr	r25
     322:	87 95       	ror	r24
     324:	9c 01       	movw	r18, r24
     326:	22 0f       	add	r18, r18
     328:	33 1f       	adc	r19, r19
     32a:	88 0f       	add	r24, r24
     32c:	99 1f       	adc	r25, r25
     32e:	88 0f       	add	r24, r24
     330:	99 1f       	adc	r25, r25
     332:	88 0f       	add	r24, r24
     334:	99 1f       	adc	r25, r25
     336:	82 0f       	add	r24, r18
     338:	93 1f       	adc	r25, r19
     33a:	9a 01       	movw	r18, r20
     33c:	28 1b       	sub	r18, r24
     33e:	39 0b       	sbc	r19, r25
     340:	c9 01       	movw	r24, r18
     342:	80 5d       	subi	r24, 0xD0	; 208
     344:	84 83       	std	Z+4, r24	; 0x04
	time[3]=hours/10+'0';
     346:	9a 01       	movw	r18, r20
     348:	0e 94 0d 15 	call	0x2a1a	; 0x2a1a <__umulhisi3>
     34c:	96 95       	lsr	r25
     34e:	87 95       	ror	r24
     350:	96 95       	lsr	r25
     352:	87 95       	ror	r24
     354:	96 95       	lsr	r25
     356:	87 95       	ror	r24
     358:	80 5d       	subi	r24, 0xD0	; 208
     35a:	83 83       	std	Z+3, r24	; 0x03
	time[1]=days%10+'0';
     35c:	40 91 1e 06 	lds	r20, 0x061E
     360:	50 91 1f 06 	lds	r21, 0x061F
     364:	9a 01       	movw	r18, r20
     366:	0e 94 0d 15 	call	0x2a1a	; 0x2a1a <__umulhisi3>
     36a:	96 95       	lsr	r25
     36c:	87 95       	ror	r24
     36e:	96 95       	lsr	r25
     370:	87 95       	ror	r24
     372:	96 95       	lsr	r25
     374:	87 95       	ror	r24
     376:	9c 01       	movw	r18, r24
     378:	22 0f       	add	r18, r18
     37a:	33 1f       	adc	r19, r19
     37c:	88 0f       	add	r24, r24
     37e:	99 1f       	adc	r25, r25
     380:	88 0f       	add	r24, r24
     382:	99 1f       	adc	r25, r25
     384:	88 0f       	add	r24, r24
     386:	99 1f       	adc	r25, r25
     388:	82 0f       	add	r24, r18
     38a:	93 1f       	adc	r25, r19
     38c:	9a 01       	movw	r18, r20
     38e:	28 1b       	sub	r18, r24
     390:	39 0b       	sbc	r19, r25
     392:	c9 01       	movw	r24, r18
     394:	80 5d       	subi	r24, 0xD0	; 208
     396:	81 83       	std	Z+1, r24	; 0x01
	time[0]=days/10+'0';
     398:	9a 01       	movw	r18, r20
     39a:	0e 94 0d 15 	call	0x2a1a	; 0x2a1a <__umulhisi3>
     39e:	96 95       	lsr	r25
     3a0:	87 95       	ror	r24
     3a2:	96 95       	lsr	r25
     3a4:	87 95       	ror	r24
     3a6:	96 95       	lsr	r25
     3a8:	87 95       	ror	r24
     3aa:	80 5d       	subi	r24, 0xD0	; 208
     3ac:	80 83       	st	Z, r24

	lcd12864_write_str(time);
     3ae:	cf 01       	movw	r24, r30
     3b0:	0e 94 16 10 	call	0x202c	; 0x202c <lcd12864_write_str>
	
	
	if(Fun_UnitChange(pressure_diff) > PD_Upper_Limit){
     3b4:	c6 01       	movw	r24, r12
     3b6:	9e de       	rcall	.-708    	; 0xf4 <Fun_UnitChange>
     3b8:	6b 01       	movw	r12, r22
     3ba:	7c 01       	movw	r14, r24
     3bc:	20 91 08 01 	lds	r18, 0x0108
     3c0:	30 91 09 01 	lds	r19, 0x0109
     3c4:	40 91 0a 01 	lds	r20, 0x010A
     3c8:	50 91 0b 01 	lds	r21, 0x010B
     3cc:	0e 94 a0 14 	call	0x2940	; 0x2940 <__gesf2>
     3d0:	18 16       	cp	r1, r24
     3d2:	2c f4       	brge	.+10     	; 0x3de <Act_Update_Main+0x2b4>
			start_sequence();
     3d4:	1c d5       	rcall	.+2616   	; 0xe0e <start_sequence>
			Blowing_State = 1;
     3d6:	81 e0       	ldi	r24, 0x01	; 1
     3d8:	80 93 29 06 	sts	0x0629, r24
     3dc:	11 c0       	rjmp	.+34     	; 0x400 <Act_Update_Main+0x2d6>
	}
	else if(Fun_UnitChange(pressure_diff) < PD_Lower_Limit){
     3de:	20 91 04 01 	lds	r18, 0x0104
     3e2:	30 91 05 01 	lds	r19, 0x0105
     3e6:	40 91 06 01 	lds	r20, 0x0106
     3ea:	50 91 07 01 	lds	r21, 0x0107
     3ee:	c7 01       	movw	r24, r14
     3f0:	b6 01       	movw	r22, r12
     3f2:	0e 94 51 13 	call	0x26a2	; 0x26a2 <__cmpsf2>
     3f6:	88 23       	and	r24, r24
     3f8:	1c f4       	brge	.+6      	; 0x400 <Act_Update_Main+0x2d6>
		stop_sequence();
     3fa:	1a d5       	rcall	.+2612   	; 0xe30 <stop_sequence>
		Blowing_State = 0;
     3fc:	10 92 29 06 	sts	0x0629, r1
	}
	
	}


}
     400:	df 91       	pop	r29
     402:	cf 91       	pop	r28
     404:	ff 90       	pop	r15
     406:	ef 90       	pop	r14
     408:	df 90       	pop	r13
     40a:	cf 90       	pop	r12
     40c:	08 95       	ret

0000040e <Act_pressure_setting1_display>:
	
		
	
}

void Act_pressure_setting1_display(void){
     40e:	cf 93       	push	r28
	uint8_t n=0;
	if(PD_Unit == UNIT_MMH2O)
     410:	c1 e0       	ldi	r28, 0x01	; 1
     412:	80 91 0c 01 	lds	r24, 0x010C
     416:	81 30       	cpi	r24, 0x01	; 1
     418:	09 f0       	breq	.+2      	; 0x41c <Act_pressure_setting1_display+0xe>
     41a:	c0 e0       	ldi	r28, 0x00	; 0
		n=1;
	lcd12864_set_pos(5,2);
     41c:	62 e0       	ldi	r22, 0x02	; 2
     41e:	85 e0       	ldi	r24, 0x05	; 5
     420:	0e 94 fb 0f 	call	0x1ff6	; 0x1ff6 <lcd12864_set_pos>
	lcd12864_write_float(PD_Upper_Limit,n);
     424:	60 91 08 01 	lds	r22, 0x0108
     428:	70 91 09 01 	lds	r23, 0x0109
     42c:	80 91 0a 01 	lds	r24, 0x010A
     430:	90 91 0b 01 	lds	r25, 0x010B
     434:	4c 2f       	mov	r20, r28
     436:	0e 94 2a 10 	call	0x2054	; 0x2054 <lcd12864_write_float>
	lcd12864_set_pos(5,3);
     43a:	63 e0       	ldi	r22, 0x03	; 3
     43c:	85 e0       	ldi	r24, 0x05	; 5
     43e:	0e 94 fb 0f 	call	0x1ff6	; 0x1ff6 <lcd12864_set_pos>
	lcd12864_write_float(PD_Lower_Limit,n);
     442:	60 91 04 01 	lds	r22, 0x0104
     446:	70 91 05 01 	lds	r23, 0x0105
     44a:	80 91 06 01 	lds	r24, 0x0106
     44e:	90 91 07 01 	lds	r25, 0x0107
     452:	4c 2f       	mov	r20, r28
     454:	0e 94 2a 10 	call	0x2054	; 0x2054 <lcd12864_write_float>
}
     458:	cf 91       	pop	r28
     45a:	08 95       	ret

0000045c <Act_PdUAddone>:


void Act_PdUAddone(void){
     45c:	cf 92       	push	r12
     45e:	df 92       	push	r13
     460:	ef 92       	push	r14
     462:	ff 92       	push	r15
		if(PD_Upper_Limit+3<=950)
     464:	20 e0       	ldi	r18, 0x00	; 0
     466:	30 e0       	ldi	r19, 0x00	; 0
     468:	40 e4       	ldi	r20, 0x40	; 64
     46a:	50 e4       	ldi	r21, 0x40	; 64
     46c:	60 91 08 01 	lds	r22, 0x0108
     470:	70 91 09 01 	lds	r23, 0x0109
     474:	80 91 0a 01 	lds	r24, 0x010A
     478:	90 91 0b 01 	lds	r25, 0x010B
     47c:	0e 94 ed 12 	call	0x25da	; 0x25da <__addsf3>
     480:	6b 01       	movw	r12, r22
     482:	7c 01       	movw	r14, r24
     484:	20 e0       	ldi	r18, 0x00	; 0
     486:	30 e8       	ldi	r19, 0x80	; 128
     488:	4d e6       	ldi	r20, 0x6D	; 109
     48a:	54 e4       	ldi	r21, 0x44	; 68
     48c:	0e 94 51 13 	call	0x26a2	; 0x26a2 <__cmpsf2>
     490:	18 16       	cp	r1, r24
     492:	44 f0       	brlt	.+16     	; 0x4a4 <Act_PdUAddone+0x48>
	PD_Upper_Limit +=3;
     494:	c0 92 08 01 	sts	0x0108, r12
     498:	d0 92 09 01 	sts	0x0109, r13
     49c:	e0 92 0a 01 	sts	0x010A, r14
     4a0:	f0 92 0b 01 	sts	0x010B, r15
}
     4a4:	ff 90       	pop	r15
     4a6:	ef 90       	pop	r14
     4a8:	df 90       	pop	r13
     4aa:	cf 90       	pop	r12
     4ac:	08 95       	ret

000004ae <Act_PdUDecone>:

void Act_PdUDecone(void){
     4ae:	cf 92       	push	r12
     4b0:	df 92       	push	r13
     4b2:	ef 92       	push	r14
     4b4:	ff 92       	push	r15
	if(PD_Upper_Limit-3>=PD_Lower_Limit)
     4b6:	20 e0       	ldi	r18, 0x00	; 0
     4b8:	30 e0       	ldi	r19, 0x00	; 0
     4ba:	40 e4       	ldi	r20, 0x40	; 64
     4bc:	50 e4       	ldi	r21, 0x40	; 64
     4be:	60 91 08 01 	lds	r22, 0x0108
     4c2:	70 91 09 01 	lds	r23, 0x0109
     4c6:	80 91 0a 01 	lds	r24, 0x010A
     4ca:	90 91 0b 01 	lds	r25, 0x010B
     4ce:	0e 94 ec 12 	call	0x25d8	; 0x25d8 <__subsf3>
     4d2:	6b 01       	movw	r12, r22
     4d4:	7c 01       	movw	r14, r24
     4d6:	20 91 04 01 	lds	r18, 0x0104
     4da:	30 91 05 01 	lds	r19, 0x0105
     4de:	40 91 06 01 	lds	r20, 0x0106
     4e2:	50 91 07 01 	lds	r21, 0x0107
     4e6:	0e 94 a0 14 	call	0x2940	; 0x2940 <__gesf2>
     4ea:	88 23       	and	r24, r24
     4ec:	44 f0       	brlt	.+16     	; 0x4fe <Act_PdUDecone+0x50>
	PD_Upper_Limit-=3;
     4ee:	c0 92 08 01 	sts	0x0108, r12
     4f2:	d0 92 09 01 	sts	0x0109, r13
     4f6:	e0 92 0a 01 	sts	0x010A, r14
     4fa:	f0 92 0b 01 	sts	0x010B, r15
}
     4fe:	ff 90       	pop	r15
     500:	ef 90       	pop	r14
     502:	df 90       	pop	r13
     504:	cf 90       	pop	r12
     506:	08 95       	ret

00000508 <Act_PdDAddone>:
void Act_PdDAddone(void){
     508:	cf 92       	push	r12
     50a:	df 92       	push	r13
     50c:	ef 92       	push	r14
     50e:	ff 92       	push	r15
		if(PD_Lower_Limit+3<PD_Upper_Limit)
     510:	20 e0       	ldi	r18, 0x00	; 0
     512:	30 e0       	ldi	r19, 0x00	; 0
     514:	40 e4       	ldi	r20, 0x40	; 64
     516:	50 e4       	ldi	r21, 0x40	; 64
     518:	60 91 04 01 	lds	r22, 0x0104
     51c:	70 91 05 01 	lds	r23, 0x0105
     520:	80 91 06 01 	lds	r24, 0x0106
     524:	90 91 07 01 	lds	r25, 0x0107
     528:	0e 94 ed 12 	call	0x25da	; 0x25da <__addsf3>
     52c:	6b 01       	movw	r12, r22
     52e:	7c 01       	movw	r14, r24
     530:	20 91 08 01 	lds	r18, 0x0108
     534:	30 91 09 01 	lds	r19, 0x0109
     538:	40 91 0a 01 	lds	r20, 0x010A
     53c:	50 91 0b 01 	lds	r21, 0x010B
     540:	0e 94 51 13 	call	0x26a2	; 0x26a2 <__cmpsf2>
     544:	88 23       	and	r24, r24
     546:	44 f4       	brge	.+16     	; 0x558 <Act_PdDAddone+0x50>
		PD_Lower_Limit+=3;
     548:	c0 92 04 01 	sts	0x0104, r12
     54c:	d0 92 05 01 	sts	0x0105, r13
     550:	e0 92 06 01 	sts	0x0106, r14
     554:	f0 92 07 01 	sts	0x0107, r15
}
     558:	ff 90       	pop	r15
     55a:	ef 90       	pop	r14
     55c:	df 90       	pop	r13
     55e:	cf 90       	pop	r12
     560:	08 95       	ret

00000562 <Act_PdDDecone>:

void Act_PdDDecone(void){
     562:	cf 92       	push	r12
     564:	df 92       	push	r13
     566:	ef 92       	push	r14
     568:	ff 92       	push	r15
	if(PD_Lower_Limit-3>=100)
     56a:	20 e0       	ldi	r18, 0x00	; 0
     56c:	30 e0       	ldi	r19, 0x00	; 0
     56e:	40 e4       	ldi	r20, 0x40	; 64
     570:	50 e4       	ldi	r21, 0x40	; 64
     572:	60 91 04 01 	lds	r22, 0x0104
     576:	70 91 05 01 	lds	r23, 0x0105
     57a:	80 91 06 01 	lds	r24, 0x0106
     57e:	90 91 07 01 	lds	r25, 0x0107
     582:	0e 94 ec 12 	call	0x25d8	; 0x25d8 <__subsf3>
     586:	6b 01       	movw	r12, r22
     588:	7c 01       	movw	r14, r24
     58a:	20 e0       	ldi	r18, 0x00	; 0
     58c:	30 e0       	ldi	r19, 0x00	; 0
     58e:	48 ec       	ldi	r20, 0xC8	; 200
     590:	52 e4       	ldi	r21, 0x42	; 66
     592:	0e 94 a0 14 	call	0x2940	; 0x2940 <__gesf2>
     596:	88 23       	and	r24, r24
     598:	44 f0       	brlt	.+16     	; 0x5aa <Act_PdDDecone+0x48>
		PD_Lower_Limit-=3;
     59a:	c0 92 04 01 	sts	0x0104, r12
     59e:	d0 92 05 01 	sts	0x0105, r13
     5a2:	e0 92 06 01 	sts	0x0106, r14
     5a6:	f0 92 07 01 	sts	0x0107, r15
}
     5aa:	ff 90       	pop	r15
     5ac:	ef 90       	pop	r14
     5ae:	df 90       	pop	r13
     5b0:	cf 90       	pop	r12
     5b2:	08 95       	ret

000005b4 <Act_PdUAddten>:

void Act_PdUAddten(void){
     5b4:	cf 92       	push	r12
     5b6:	df 92       	push	r13
     5b8:	ef 92       	push	r14
     5ba:	ff 92       	push	r15
	if(PD_Upper_Limit+30<=950)
     5bc:	20 e0       	ldi	r18, 0x00	; 0
     5be:	30 e0       	ldi	r19, 0x00	; 0
     5c0:	40 ef       	ldi	r20, 0xF0	; 240
     5c2:	51 e4       	ldi	r21, 0x41	; 65
     5c4:	60 91 08 01 	lds	r22, 0x0108
     5c8:	70 91 09 01 	lds	r23, 0x0109
     5cc:	80 91 0a 01 	lds	r24, 0x010A
     5d0:	90 91 0b 01 	lds	r25, 0x010B
     5d4:	0e 94 ed 12 	call	0x25da	; 0x25da <__addsf3>
     5d8:	6b 01       	movw	r12, r22
     5da:	7c 01       	movw	r14, r24
     5dc:	20 e0       	ldi	r18, 0x00	; 0
     5de:	30 e8       	ldi	r19, 0x80	; 128
     5e0:	4d e6       	ldi	r20, 0x6D	; 109
     5e2:	54 e4       	ldi	r21, 0x44	; 68
     5e4:	0e 94 51 13 	call	0x26a2	; 0x26a2 <__cmpsf2>
     5e8:	18 16       	cp	r1, r24
     5ea:	44 f0       	brlt	.+16     	; 0x5fc <Act_PdUAddten+0x48>
		PD_Upper_Limit +=30;
     5ec:	c0 92 08 01 	sts	0x0108, r12
     5f0:	d0 92 09 01 	sts	0x0109, r13
     5f4:	e0 92 0a 01 	sts	0x010A, r14
     5f8:	f0 92 0b 01 	sts	0x010B, r15
}
     5fc:	ff 90       	pop	r15
     5fe:	ef 90       	pop	r14
     600:	df 90       	pop	r13
     602:	cf 90       	pop	r12
     604:	08 95       	ret

00000606 <Act_PdUDecten>:

void Act_PdUDecten(void){
     606:	cf 92       	push	r12
     608:	df 92       	push	r13
     60a:	ef 92       	push	r14
     60c:	ff 92       	push	r15
	if(PD_Upper_Limit-30>=PD_Lower_Limit)
     60e:	20 e0       	ldi	r18, 0x00	; 0
     610:	30 e0       	ldi	r19, 0x00	; 0
     612:	40 ef       	ldi	r20, 0xF0	; 240
     614:	51 e4       	ldi	r21, 0x41	; 65
     616:	60 91 08 01 	lds	r22, 0x0108
     61a:	70 91 09 01 	lds	r23, 0x0109
     61e:	80 91 0a 01 	lds	r24, 0x010A
     622:	90 91 0b 01 	lds	r25, 0x010B
     626:	0e 94 ec 12 	call	0x25d8	; 0x25d8 <__subsf3>
     62a:	6b 01       	movw	r12, r22
     62c:	7c 01       	movw	r14, r24
     62e:	20 91 04 01 	lds	r18, 0x0104
     632:	30 91 05 01 	lds	r19, 0x0105
     636:	40 91 06 01 	lds	r20, 0x0106
     63a:	50 91 07 01 	lds	r21, 0x0107
     63e:	0e 94 a0 14 	call	0x2940	; 0x2940 <__gesf2>
     642:	88 23       	and	r24, r24
     644:	44 f0       	brlt	.+16     	; 0x656 <Act_PdUDecten+0x50>
		PD_Upper_Limit-=30;
     646:	c0 92 08 01 	sts	0x0108, r12
     64a:	d0 92 09 01 	sts	0x0109, r13
     64e:	e0 92 0a 01 	sts	0x010A, r14
     652:	f0 92 0b 01 	sts	0x010B, r15
	
}
     656:	ff 90       	pop	r15
     658:	ef 90       	pop	r14
     65a:	df 90       	pop	r13
     65c:	cf 90       	pop	r12
     65e:	08 95       	ret

00000660 <Act_PdDAddten>:

void Act_PdDAddten(void){
     660:	cf 92       	push	r12
     662:	df 92       	push	r13
     664:	ef 92       	push	r14
     666:	ff 92       	push	r15
	
	if(PD_Lower_Limit+30<PD_Upper_Limit)
     668:	20 e0       	ldi	r18, 0x00	; 0
     66a:	30 e0       	ldi	r19, 0x00	; 0
     66c:	40 ef       	ldi	r20, 0xF0	; 240
     66e:	51 e4       	ldi	r21, 0x41	; 65
     670:	60 91 04 01 	lds	r22, 0x0104
     674:	70 91 05 01 	lds	r23, 0x0105
     678:	80 91 06 01 	lds	r24, 0x0106
     67c:	90 91 07 01 	lds	r25, 0x0107
     680:	0e 94 ed 12 	call	0x25da	; 0x25da <__addsf3>
     684:	6b 01       	movw	r12, r22
     686:	7c 01       	movw	r14, r24
     688:	20 91 08 01 	lds	r18, 0x0108
     68c:	30 91 09 01 	lds	r19, 0x0109
     690:	40 91 0a 01 	lds	r20, 0x010A
     694:	50 91 0b 01 	lds	r21, 0x010B
     698:	0e 94 51 13 	call	0x26a2	; 0x26a2 <__cmpsf2>
     69c:	88 23       	and	r24, r24
     69e:	44 f4       	brge	.+16     	; 0x6b0 <Act_PdDAddten+0x50>
		PD_Lower_Limit+=30;
     6a0:	c0 92 04 01 	sts	0x0104, r12
     6a4:	d0 92 05 01 	sts	0x0105, r13
     6a8:	e0 92 06 01 	sts	0x0106, r14
     6ac:	f0 92 07 01 	sts	0x0107, r15
}
     6b0:	ff 90       	pop	r15
     6b2:	ef 90       	pop	r14
     6b4:	df 90       	pop	r13
     6b6:	cf 90       	pop	r12
     6b8:	08 95       	ret

000006ba <Act_PdDDecten>:

void Act_PdDDecten(void){
     6ba:	cf 92       	push	r12
     6bc:	df 92       	push	r13
     6be:	ef 92       	push	r14
     6c0:	ff 92       	push	r15
	if(PD_Lower_Limit-30>=100)
     6c2:	20 e0       	ldi	r18, 0x00	; 0
     6c4:	30 e0       	ldi	r19, 0x00	; 0
     6c6:	40 ef       	ldi	r20, 0xF0	; 240
     6c8:	51 e4       	ldi	r21, 0x41	; 65
     6ca:	60 91 04 01 	lds	r22, 0x0104
     6ce:	70 91 05 01 	lds	r23, 0x0105
     6d2:	80 91 06 01 	lds	r24, 0x0106
     6d6:	90 91 07 01 	lds	r25, 0x0107
     6da:	0e 94 ec 12 	call	0x25d8	; 0x25d8 <__subsf3>
     6de:	6b 01       	movw	r12, r22
     6e0:	7c 01       	movw	r14, r24
     6e2:	20 e0       	ldi	r18, 0x00	; 0
     6e4:	30 e0       	ldi	r19, 0x00	; 0
     6e6:	48 ec       	ldi	r20, 0xC8	; 200
     6e8:	52 e4       	ldi	r21, 0x42	; 66
     6ea:	0e 94 a0 14 	call	0x2940	; 0x2940 <__gesf2>
     6ee:	88 23       	and	r24, r24
     6f0:	44 f0       	brlt	.+16     	; 0x702 <Act_PdDDecten+0x48>
	PD_Lower_Limit-=30;
     6f2:	c0 92 04 01 	sts	0x0104, r12
     6f6:	d0 92 05 01 	sts	0x0105, r13
     6fa:	e0 92 06 01 	sts	0x0106, r14
     6fe:	f0 92 07 01 	sts	0x0107, r15
}
     702:	ff 90       	pop	r15
     704:	ef 90       	pop	r14
     706:	df 90       	pop	r13
     708:	cf 90       	pop	r12
     70a:	08 95       	ret

0000070c <Act_PdUAddHud>:
void Act_PdUAddHud(void){
     70c:	cf 92       	push	r12
     70e:	df 92       	push	r13
     710:	ef 92       	push	r14
     712:	ff 92       	push	r15
	if(PD_Upper_Limit+300<=950)
     714:	20 e0       	ldi	r18, 0x00	; 0
     716:	30 e0       	ldi	r19, 0x00	; 0
     718:	46 e9       	ldi	r20, 0x96	; 150
     71a:	53 e4       	ldi	r21, 0x43	; 67
     71c:	60 91 08 01 	lds	r22, 0x0108
     720:	70 91 09 01 	lds	r23, 0x0109
     724:	80 91 0a 01 	lds	r24, 0x010A
     728:	90 91 0b 01 	lds	r25, 0x010B
     72c:	0e 94 ed 12 	call	0x25da	; 0x25da <__addsf3>
     730:	6b 01       	movw	r12, r22
     732:	7c 01       	movw	r14, r24
     734:	20 e0       	ldi	r18, 0x00	; 0
     736:	30 e8       	ldi	r19, 0x80	; 128
     738:	4d e6       	ldi	r20, 0x6D	; 109
     73a:	54 e4       	ldi	r21, 0x44	; 68
     73c:	0e 94 51 13 	call	0x26a2	; 0x26a2 <__cmpsf2>
     740:	18 16       	cp	r1, r24
     742:	44 f0       	brlt	.+16     	; 0x754 <Act_PdUAddHud+0x48>
	PD_Upper_Limit +=300;
     744:	c0 92 08 01 	sts	0x0108, r12
     748:	d0 92 09 01 	sts	0x0109, r13
     74c:	e0 92 0a 01 	sts	0x010A, r14
     750:	f0 92 0b 01 	sts	0x010B, r15
}
     754:	ff 90       	pop	r15
     756:	ef 90       	pop	r14
     758:	df 90       	pop	r13
     75a:	cf 90       	pop	r12
     75c:	08 95       	ret

0000075e <Act_PdUDecHud>:
void Act_PdUDecHud(void){
     75e:	cf 92       	push	r12
     760:	df 92       	push	r13
     762:	ef 92       	push	r14
     764:	ff 92       	push	r15
	if(PD_Upper_Limit-300>=PD_Lower_Limit)
     766:	20 e0       	ldi	r18, 0x00	; 0
     768:	30 e0       	ldi	r19, 0x00	; 0
     76a:	46 e9       	ldi	r20, 0x96	; 150
     76c:	53 e4       	ldi	r21, 0x43	; 67
     76e:	60 91 08 01 	lds	r22, 0x0108
     772:	70 91 09 01 	lds	r23, 0x0109
     776:	80 91 0a 01 	lds	r24, 0x010A
     77a:	90 91 0b 01 	lds	r25, 0x010B
     77e:	0e 94 ec 12 	call	0x25d8	; 0x25d8 <__subsf3>
     782:	6b 01       	movw	r12, r22
     784:	7c 01       	movw	r14, r24
     786:	20 91 04 01 	lds	r18, 0x0104
     78a:	30 91 05 01 	lds	r19, 0x0105
     78e:	40 91 06 01 	lds	r20, 0x0106
     792:	50 91 07 01 	lds	r21, 0x0107
     796:	0e 94 a0 14 	call	0x2940	; 0x2940 <__gesf2>
     79a:	88 23       	and	r24, r24
     79c:	44 f0       	brlt	.+16     	; 0x7ae <Act_PdUDecHud+0x50>
		PD_Upper_Limit-=300;
     79e:	c0 92 08 01 	sts	0x0108, r12
     7a2:	d0 92 09 01 	sts	0x0109, r13
     7a6:	e0 92 0a 01 	sts	0x010A, r14
     7aa:	f0 92 0b 01 	sts	0x010B, r15
}
     7ae:	ff 90       	pop	r15
     7b0:	ef 90       	pop	r14
     7b2:	df 90       	pop	r13
     7b4:	cf 90       	pop	r12
     7b6:	08 95       	ret

000007b8 <Act_PdDAddHud>:

void Act_PdDAddHud(void){
     7b8:	cf 92       	push	r12
     7ba:	df 92       	push	r13
     7bc:	ef 92       	push	r14
     7be:	ff 92       	push	r15
	
	if(PD_Lower_Limit+300<PD_Upper_Limit)
     7c0:	20 e0       	ldi	r18, 0x00	; 0
     7c2:	30 e0       	ldi	r19, 0x00	; 0
     7c4:	46 e9       	ldi	r20, 0x96	; 150
     7c6:	53 e4       	ldi	r21, 0x43	; 67
     7c8:	60 91 04 01 	lds	r22, 0x0104
     7cc:	70 91 05 01 	lds	r23, 0x0105
     7d0:	80 91 06 01 	lds	r24, 0x0106
     7d4:	90 91 07 01 	lds	r25, 0x0107
     7d8:	0e 94 ed 12 	call	0x25da	; 0x25da <__addsf3>
     7dc:	6b 01       	movw	r12, r22
     7de:	7c 01       	movw	r14, r24
     7e0:	20 91 08 01 	lds	r18, 0x0108
     7e4:	30 91 09 01 	lds	r19, 0x0109
     7e8:	40 91 0a 01 	lds	r20, 0x010A
     7ec:	50 91 0b 01 	lds	r21, 0x010B
     7f0:	0e 94 51 13 	call	0x26a2	; 0x26a2 <__cmpsf2>
     7f4:	88 23       	and	r24, r24
     7f6:	44 f4       	brge	.+16     	; 0x808 <Act_PdDAddHud+0x50>
	PD_Lower_Limit+=300;
     7f8:	c0 92 04 01 	sts	0x0104, r12
     7fc:	d0 92 05 01 	sts	0x0105, r13
     800:	e0 92 06 01 	sts	0x0106, r14
     804:	f0 92 07 01 	sts	0x0107, r15
	
}
     808:	ff 90       	pop	r15
     80a:	ef 90       	pop	r14
     80c:	df 90       	pop	r13
     80e:	cf 90       	pop	r12
     810:	08 95       	ret

00000812 <Act_PdDDecHud>:
void Act_PdDDecHud(void){
     812:	cf 92       	push	r12
     814:	df 92       	push	r13
     816:	ef 92       	push	r14
     818:	ff 92       	push	r15
	if(PD_Lower_Limit-300>=100)
     81a:	20 e0       	ldi	r18, 0x00	; 0
     81c:	30 e0       	ldi	r19, 0x00	; 0
     81e:	46 e9       	ldi	r20, 0x96	; 150
     820:	53 e4       	ldi	r21, 0x43	; 67
     822:	60 91 04 01 	lds	r22, 0x0104
     826:	70 91 05 01 	lds	r23, 0x0105
     82a:	80 91 06 01 	lds	r24, 0x0106
     82e:	90 91 07 01 	lds	r25, 0x0107
     832:	0e 94 ec 12 	call	0x25d8	; 0x25d8 <__subsf3>
     836:	6b 01       	movw	r12, r22
     838:	7c 01       	movw	r14, r24
     83a:	20 e0       	ldi	r18, 0x00	; 0
     83c:	30 e0       	ldi	r19, 0x00	; 0
     83e:	48 ec       	ldi	r20, 0xC8	; 200
     840:	52 e4       	ldi	r21, 0x42	; 66
     842:	0e 94 a0 14 	call	0x2940	; 0x2940 <__gesf2>
     846:	88 23       	and	r24, r24
     848:	44 f0       	brlt	.+16     	; 0x85a <Act_PdDDecHud+0x48>
	PD_Lower_Limit-=300;
     84a:	c0 92 04 01 	sts	0x0104, r12
     84e:	d0 92 05 01 	sts	0x0105, r13
     852:	e0 92 06 01 	sts	0x0106, r14
     856:	f0 92 07 01 	sts	0x0107, r15
}
     85a:	ff 90       	pop	r15
     85c:	ef 90       	pop	r14
     85e:	df 90       	pop	r13
     860:	cf 90       	pop	r12
     862:	08 95       	ret

00000864 <Act_SwitchUnit>:
void Act_SwitchUnit(void){
	if(PD_Unit == UNIT_PA){
     864:	80 91 0c 01 	lds	r24, 0x010C
     868:	82 30       	cpi	r24, 0x02	; 2
     86a:	e1 f5       	brne	.+120    	; 0x8e4 <Act_SwitchUnit+0x80>
		PD_Unit = UNIT_MMH2O;
     86c:	81 e0       	ldi	r24, 0x01	; 1
     86e:	80 93 0c 01 	sts	0x010C, r24
		PD_Upper_Limit /= UNIT_CONV_PA;
     872:	24 e4       	ldi	r18, 0x44	; 68
     874:	3b e8       	ldi	r19, 0x8B	; 139
     876:	4c e6       	ldi	r20, 0x6C	; 108
     878:	50 e4       	ldi	r21, 0x40	; 64
     87a:	60 91 08 01 	lds	r22, 0x0108
     87e:	70 91 09 01 	lds	r23, 0x0109
     882:	80 91 0a 01 	lds	r24, 0x010A
     886:	90 91 0b 01 	lds	r25, 0x010B
     88a:	0e 94 55 13 	call	0x26aa	; 0x26aa <__divsf3>
		PD_Upper_Limit *= UNIT_CONV_H2O;
     88e:	27 ee       	ldi	r18, 0xE7	; 231
     890:	30 e0       	ldi	r19, 0x00	; 0
     892:	41 ec       	ldi	r20, 0xC1	; 193
     894:	5e e3       	ldi	r21, 0x3E	; 62
     896:	0e 94 a4 14 	call	0x2948	; 0x2948 <__mulsf3>
     89a:	60 93 08 01 	sts	0x0108, r22
     89e:	70 93 09 01 	sts	0x0109, r23
     8a2:	80 93 0a 01 	sts	0x010A, r24
     8a6:	90 93 0b 01 	sts	0x010B, r25
		PD_Lower_Limit /= UNIT_CONV_PA;
     8aa:	24 e4       	ldi	r18, 0x44	; 68
     8ac:	3b e8       	ldi	r19, 0x8B	; 139
     8ae:	4c e6       	ldi	r20, 0x6C	; 108
     8b0:	50 e4       	ldi	r21, 0x40	; 64
     8b2:	60 91 04 01 	lds	r22, 0x0104
     8b6:	70 91 05 01 	lds	r23, 0x0105
     8ba:	80 91 06 01 	lds	r24, 0x0106
     8be:	90 91 07 01 	lds	r25, 0x0107
     8c2:	0e 94 55 13 	call	0x26aa	; 0x26aa <__divsf3>
		PD_Lower_Limit *= UNIT_CONV_H2O;
     8c6:	27 ee       	ldi	r18, 0xE7	; 231
     8c8:	30 e0       	ldi	r19, 0x00	; 0
     8ca:	41 ec       	ldi	r20, 0xC1	; 193
     8cc:	5e e3       	ldi	r21, 0x3E	; 62
     8ce:	0e 94 a4 14 	call	0x2948	; 0x2948 <__mulsf3>
     8d2:	60 93 04 01 	sts	0x0104, r22
     8d6:	70 93 05 01 	sts	0x0105, r23
     8da:	80 93 06 01 	sts	0x0106, r24
     8de:	90 93 07 01 	sts	0x0107, r25
     8e2:	08 95       	ret
	}
	else{
		PD_Unit = UNIT_PA; 
     8e4:	82 e0       	ldi	r24, 0x02	; 2
     8e6:	80 93 0c 01 	sts	0x010C, r24
		PD_Upper_Limit /= UNIT_CONV_H2O;
     8ea:	27 ee       	ldi	r18, 0xE7	; 231
     8ec:	30 e0       	ldi	r19, 0x00	; 0
     8ee:	41 ec       	ldi	r20, 0xC1	; 193
     8f0:	5e e3       	ldi	r21, 0x3E	; 62
     8f2:	60 91 08 01 	lds	r22, 0x0108
     8f6:	70 91 09 01 	lds	r23, 0x0109
     8fa:	80 91 0a 01 	lds	r24, 0x010A
     8fe:	90 91 0b 01 	lds	r25, 0x010B
     902:	0e 94 55 13 	call	0x26aa	; 0x26aa <__divsf3>
		PD_Upper_Limit *= UNIT_CONV_PA;
     906:	24 e4       	ldi	r18, 0x44	; 68
     908:	3b e8       	ldi	r19, 0x8B	; 139
     90a:	4c e6       	ldi	r20, 0x6C	; 108
     90c:	50 e4       	ldi	r21, 0x40	; 64
     90e:	0e 94 a4 14 	call	0x2948	; 0x2948 <__mulsf3>
     912:	60 93 08 01 	sts	0x0108, r22
     916:	70 93 09 01 	sts	0x0109, r23
     91a:	80 93 0a 01 	sts	0x010A, r24
     91e:	90 93 0b 01 	sts	0x010B, r25
		PD_Lower_Limit /= UNIT_CONV_H2O;
     922:	27 ee       	ldi	r18, 0xE7	; 231
     924:	30 e0       	ldi	r19, 0x00	; 0
     926:	41 ec       	ldi	r20, 0xC1	; 193
     928:	5e e3       	ldi	r21, 0x3E	; 62
     92a:	60 91 04 01 	lds	r22, 0x0104
     92e:	70 91 05 01 	lds	r23, 0x0105
     932:	80 91 06 01 	lds	r24, 0x0106
     936:	90 91 07 01 	lds	r25, 0x0107
     93a:	0e 94 55 13 	call	0x26aa	; 0x26aa <__divsf3>
		PD_Lower_Limit *= UNIT_CONV_PA;
     93e:	24 e4       	ldi	r18, 0x44	; 68
     940:	3b e8       	ldi	r19, 0x8B	; 139
     942:	4c e6       	ldi	r20, 0x6C	; 108
     944:	50 e4       	ldi	r21, 0x40	; 64
     946:	0e 94 a4 14 	call	0x2948	; 0x2948 <__mulsf3>
     94a:	60 93 04 01 	sts	0x0104, r22
     94e:	70 93 05 01 	sts	0x0105, r23
     952:	80 93 06 01 	sts	0x0106, r24
     956:	90 93 07 01 	sts	0x0107, r25
     95a:	08 95       	ret

0000095c <UpdateLine>:
	switch_start = false;
	
	
}

void UpdateLine(char *str, uint8_t line){
     95c:	1f 93       	push	r17
     95e:	cf 93       	push	r28
     960:	df 93       	push	r29
     962:	ec 01       	movw	r28, r24
     964:	16 2f       	mov	r17, r22
	lcd12864_set_pos(0,line);
     966:	80 e0       	ldi	r24, 0x00	; 0
     968:	0e 94 fb 0f 	call	0x1ff6	; 0x1ff6 <lcd12864_set_pos>
	lcd12864_write_str(Display_Strings[0]);
     96c:	80 91 c9 03 	lds	r24, 0x03C9
     970:	90 91 ca 03 	lds	r25, 0x03CA
     974:	0e 94 16 10 	call	0x202c	; 0x202c <lcd12864_write_str>
	lcd12864_set_pos(0,line);
     978:	61 2f       	mov	r22, r17
     97a:	80 e0       	ldi	r24, 0x00	; 0
     97c:	0e 94 fb 0f 	call	0x1ff6	; 0x1ff6 <lcd12864_set_pos>
	lcd12864_write_str(str);
     980:	ce 01       	movw	r24, r28
     982:	0e 94 16 10 	call	0x202c	; 0x202c <lcd12864_write_str>
	
     986:	df 91       	pop	r29
     988:	cf 91       	pop	r28
     98a:	1f 91       	pop	r17
     98c:	08 95       	ret

0000098e <Act_InitSystem>:
		
	}
	
}

void Act_InitSystem(void){
     98e:	ff 92       	push	r15
     990:	0f 93       	push	r16
     992:	1f 93       	push	r17
     994:	cf 93       	push	r28
     996:	df 93       	push	r29
	uint8_t i;

	UpdateLine("系统启动... ",3);
     998:	63 e0       	ldi	r22, 0x03	; 3
     99a:	80 e4       	ldi	r24, 0x40	; 64
     99c:	94 e0       	ldi	r25, 0x04	; 4
     99e:	de df       	rcall	.-68     	; 0x95c <UpdateLine>
     9a0:	80 e0       	ldi	r24, 0x00	; 0
     9a2:	90 ec       	ldi	r25, 0xC0	; 192
     9a4:	a2 e1       	ldi	r26, 0x12	; 18
     9a6:	b0 e0       	ldi	r27, 0x00	; 0
 * @{
 */
__always_optimize
static inline void __portable_avr_delay_cycles(unsigned long n)
{
	do { barrier(); } while (--n);
     9a8:	01 97       	sbiw	r24, 0x01	; 1
     9aa:	a1 09       	sbc	r26, r1
     9ac:	b1 09       	sbc	r27, r1
     9ae:	00 97       	sbiw	r24, 0x00	; 0
     9b0:	a1 05       	cpc	r26, r1
     9b2:	b1 05       	cpc	r27, r1
     9b4:	c9 f7       	brne	.-14     	; 0x9a8 <Act_InitSystem+0x1a>
	delay_ms(1000);

	UpdateLine("卸灰阀启动...",3);
     9b6:	63 e0       	ldi	r22, 0x03	; 3
     9b8:	8d e4       	ldi	r24, 0x4D	; 77
     9ba:	94 e0       	ldi	r25, 0x04	; 4
     9bc:	cf df       	rcall	.-98     	; 0x95c <UpdateLine>
	DustValve(IO_ON);
     9be:	81 e0       	ldi	r24, 0x01	; 1
     9c0:	7f d2       	rcall	.+1278   	; 0xec0 <DustValve>
	for(i=Delay_DustvavleToFan;i>0;i--){
     9c2:	c0 91 02 01 	lds	r28, 0x0102
     9c6:	cc 23       	and	r28, r28
     9c8:	c9 f0       	breq	.+50     	; 0x9fc <Act_InitSystem+0x6e>
	lcd12864_set_pos(7,3);
	lcd12864_write_int(i);
     9ca:	f1 2c       	mov	r15, r1
     9cc:	00 ec       	ldi	r16, 0xC0	; 192
     9ce:	12 e1       	ldi	r17, 0x12	; 18
     9d0:	d0 e0       	ldi	r29, 0x00	; 0
	delay_ms(1000);

	UpdateLine("卸灰阀启动...",3);
	DustValve(IO_ON);
	for(i=Delay_DustvavleToFan;i>0;i--){
	lcd12864_set_pos(7,3);
     9d2:	63 e0       	ldi	r22, 0x03	; 3
     9d4:	87 e0       	ldi	r24, 0x07	; 7
     9d6:	0e 94 fb 0f 	call	0x1ff6	; 0x1ff6 <lcd12864_set_pos>
	lcd12864_write_int(i);
     9da:	8c 2f       	mov	r24, r28
     9dc:	90 e0       	ldi	r25, 0x00	; 0
     9de:	0e 94 6d 10 	call	0x20da	; 0x20da <lcd12864_write_int>
     9e2:	8f 2d       	mov	r24, r15
     9e4:	90 2f       	mov	r25, r16
     9e6:	a1 2f       	mov	r26, r17
     9e8:	bd 2f       	mov	r27, r29
     9ea:	01 97       	sbiw	r24, 0x01	; 1
     9ec:	a1 09       	sbc	r26, r1
     9ee:	b1 09       	sbc	r27, r1
     9f0:	00 97       	sbiw	r24, 0x00	; 0
     9f2:	a1 05       	cpc	r26, r1
     9f4:	b1 05       	cpc	r27, r1
     9f6:	c9 f7       	brne	.-14     	; 0x9ea <Act_InitSystem+0x5c>
	UpdateLine("系统启动... ",3);
	delay_ms(1000);

	UpdateLine("卸灰阀启动...",3);
	DustValve(IO_ON);
	for(i=Delay_DustvavleToFan;i>0;i--){
     9f8:	c1 50       	subi	r28, 0x01	; 1
     9fa:	59 f7       	brne	.-42     	; 0x9d2 <Act_InitSystem+0x44>
	lcd12864_set_pos(7,3);
	lcd12864_write_int(i);
	delay_ms(1000);
	}

	UpdateLine("风机启动STAR ",3);
     9fc:	63 e0       	ldi	r22, 0x03	; 3
     9fe:	8b e5       	ldi	r24, 0x5B	; 91
     a00:	94 e0       	ldi	r25, 0x04	; 4
     a02:	ac df       	rcall	.-168    	; 0x95c <UpdateLine>
	Airfan(STAR);
     a04:	81 e0       	ldi	r24, 0x01	; 1
     a06:	4f d2       	rcall	.+1182   	; 0xea6 <Airfan>
	for(i=Delay_FanStarToDelta;i>0;i--){
     a08:	c0 91 01 01 	lds	r28, 0x0101
     a0c:	cc 23       	and	r28, r28
     a0e:	c9 f0       	breq	.+50     	; 0xa42 <Act_InitSystem+0xb4>
	lcd12864_set_pos(7,3);
	lcd12864_write_int(i);
     a10:	f1 2c       	mov	r15, r1
     a12:	00 ec       	ldi	r16, 0xC0	; 192
     a14:	12 e1       	ldi	r17, 0x12	; 18
     a16:	d0 e0       	ldi	r29, 0x00	; 0
	}

	UpdateLine("风机启动STAR ",3);
	Airfan(STAR);
	for(i=Delay_FanStarToDelta;i>0;i--){
	lcd12864_set_pos(7,3);
     a18:	63 e0       	ldi	r22, 0x03	; 3
     a1a:	87 e0       	ldi	r24, 0x07	; 7
     a1c:	0e 94 fb 0f 	call	0x1ff6	; 0x1ff6 <lcd12864_set_pos>
	lcd12864_write_int(i);
     a20:	8c 2f       	mov	r24, r28
     a22:	90 e0       	ldi	r25, 0x00	; 0
     a24:	0e 94 6d 10 	call	0x20da	; 0x20da <lcd12864_write_int>
     a28:	8f 2d       	mov	r24, r15
     a2a:	90 2f       	mov	r25, r16
     a2c:	a1 2f       	mov	r26, r17
     a2e:	bd 2f       	mov	r27, r29
     a30:	01 97       	sbiw	r24, 0x01	; 1
     a32:	a1 09       	sbc	r26, r1
     a34:	b1 09       	sbc	r27, r1
     a36:	00 97       	sbiw	r24, 0x00	; 0
     a38:	a1 05       	cpc	r26, r1
     a3a:	b1 05       	cpc	r27, r1
     a3c:	c9 f7       	brne	.-14     	; 0xa30 <Act_InitSystem+0xa2>
	delay_ms(1000);
	}

	UpdateLine("风机启动STAR ",3);
	Airfan(STAR);
	for(i=Delay_FanStarToDelta;i>0;i--){
     a3e:	c1 50       	subi	r28, 0x01	; 1
     a40:	59 f7       	brne	.-42     	; 0xa18 <Act_InitSystem+0x8a>
	lcd12864_set_pos(7,3);
	lcd12864_write_int(i);
	delay_ms(1000);
	}
	Airfan(DELTA);
     a42:	82 e0       	ldi	r24, 0x02	; 2
     a44:	30 d2       	rcall	.+1120   	; 0xea6 <Airfan>

	UpdateLine("风机启动DELTA",3);
     a46:	63 e0       	ldi	r22, 0x03	; 3
     a48:	89 e6       	ldi	r24, 0x69	; 105
     a4a:	94 e0       	ldi	r25, 0x04	; 4
     a4c:	87 df       	rcall	.-242    	; 0x95c <UpdateLine>
     a4e:	80 e0       	ldi	r24, 0x00	; 0
     a50:	90 e8       	ldi	r25, 0x80	; 128
     a52:	a5 e2       	ldi	r26, 0x25	; 37
     a54:	b0 e0       	ldi	r27, 0x00	; 0
     a56:	01 97       	sbiw	r24, 0x01	; 1
     a58:	a1 09       	sbc	r26, r1
     a5a:	b1 09       	sbc	r27, r1
     a5c:	00 97       	sbiw	r24, 0x00	; 0
     a5e:	a1 05       	cpc	r26, r1
     a60:	b1 05       	cpc	r27, r1
     a62:	c9 f7       	brne	.-14     	; 0xa56 <Act_InitSystem+0xc8>
	delay_ms(2000);

	UpdateLine("时间:",3);
     a64:	63 e0       	ldi	r22, 0x03	; 3
     a66:	87 e7       	ldi	r24, 0x77	; 119
     a68:	94 e0       	ldi	r25, 0x04	; 4
     a6a:	78 df       	rcall	.-272    	; 0x95c <UpdateLine>
	swtich_monitoring = true;
     a6c:	81 e0       	ldi	r24, 0x01	; 1
     a6e:	80 93 27 06 	sts	0x0627, r24
		
}
     a72:	df 91       	pop	r29
     a74:	cf 91       	pop	r28
     a76:	1f 91       	pop	r17
     a78:	0f 91       	pop	r16
     a7a:	ff 90       	pop	r15
     a7c:	08 95       	ret

00000a7e <Act_TerminatSystem>:

void Act_TerminatSystem(void){
     a7e:	ff 92       	push	r15
     a80:	0f 93       	push	r16
     a82:	1f 93       	push	r17
     a84:	cf 93       	push	r28
     a86:	df 93       	push	r29
	uint8_t i;
	lcd12864_set_pos(0,3);
     a88:	63 e0       	ldi	r22, 0x03	; 3
     a8a:	80 e0       	ldi	r24, 0x00	; 0
     a8c:	0e 94 fb 0f 	call	0x1ff6	; 0x1ff6 <lcd12864_set_pos>
	UpdateLine("风机停机...",3);
     a90:	63 e0       	ldi	r22, 0x03	; 3
     a92:	8d e7       	ldi	r24, 0x7D	; 125
     a94:	94 e0       	ldi	r25, 0x04	; 4
     a96:	62 df       	rcall	.-316    	; 0x95c <UpdateLine>
	swtich_monitoring = false;
     a98:	10 92 27 06 	sts	0x0627, r1
	Airfan(STOP);
     a9c:	80 e0       	ldi	r24, 0x00	; 0
     a9e:	03 d2       	rcall	.+1030   	; 0xea6 <Airfan>
     aa0:	80 e0       	ldi	r24, 0x00	; 0
     aa2:	90 ec       	ldi	r25, 0xC0	; 192
     aa4:	a2 e1       	ldi	r26, 0x12	; 18
     aa6:	b0 e0       	ldi	r27, 0x00	; 0
     aa8:	01 97       	sbiw	r24, 0x01	; 1
     aaa:	a1 09       	sbc	r26, r1
     aac:	b1 09       	sbc	r27, r1
     aae:	00 97       	sbiw	r24, 0x00	; 0
     ab0:	a1 05       	cpc	r26, r1
     ab2:	b1 05       	cpc	r27, r1
     ab4:	c9 f7       	brne	.-14     	; 0xaa8 <Act_TerminatSystem+0x2a>
	delay_ms(1000);
	for(i=Delay_FantoDustvavle;i>0;i--){
     ab6:	c0 91 00 01 	lds	r28, 0x0100
     aba:	cc 23       	and	r28, r28
     abc:	c9 f0       	breq	.+50     	; 0xaf0 <Act_TerminatSystem+0x72>
	lcd12864_set_pos(7,3);
	lcd12864_write_int(i);
     abe:	f1 2c       	mov	r15, r1
     ac0:	00 ec       	ldi	r16, 0xC0	; 192
     ac2:	12 e1       	ldi	r17, 0x12	; 18
     ac4:	d0 e0       	ldi	r29, 0x00	; 0
	UpdateLine("风机停机...",3);
	swtich_monitoring = false;
	Airfan(STOP);
	delay_ms(1000);
	for(i=Delay_FantoDustvavle;i>0;i--){
	lcd12864_set_pos(7,3);
     ac6:	63 e0       	ldi	r22, 0x03	; 3
     ac8:	87 e0       	ldi	r24, 0x07	; 7
     aca:	0e 94 fb 0f 	call	0x1ff6	; 0x1ff6 <lcd12864_set_pos>
	lcd12864_write_int(i);
     ace:	8c 2f       	mov	r24, r28
     ad0:	90 e0       	ldi	r25, 0x00	; 0
     ad2:	0e 94 6d 10 	call	0x20da	; 0x20da <lcd12864_write_int>
     ad6:	8f 2d       	mov	r24, r15
     ad8:	90 2f       	mov	r25, r16
     ada:	a1 2f       	mov	r26, r17
     adc:	bd 2f       	mov	r27, r29
     ade:	01 97       	sbiw	r24, 0x01	; 1
     ae0:	a1 09       	sbc	r26, r1
     ae2:	b1 09       	sbc	r27, r1
     ae4:	00 97       	sbiw	r24, 0x00	; 0
     ae6:	a1 05       	cpc	r26, r1
     ae8:	b1 05       	cpc	r27, r1
     aea:	c9 f7       	brne	.-14     	; 0xade <Act_TerminatSystem+0x60>
	lcd12864_set_pos(0,3);
	UpdateLine("风机停机...",3);
	swtich_monitoring = false;
	Airfan(STOP);
	delay_ms(1000);
	for(i=Delay_FantoDustvavle;i>0;i--){
     aec:	c1 50       	subi	r28, 0x01	; 1
     aee:	59 f7       	brne	.-42     	; 0xac6 <Act_TerminatSystem+0x48>
	lcd12864_set_pos(7,3);
	lcd12864_write_int(i);
	delay_ms(1000);
	}

	UpdateLine("卸灰阀停止！",3);
     af0:	63 e0       	ldi	r22, 0x03	; 3
     af2:	89 e8       	ldi	r24, 0x89	; 137
     af4:	94 e0       	ldi	r25, 0x04	; 4
     af6:	32 df       	rcall	.-412    	; 0x95c <UpdateLine>
	DustValve(IO_OFF);
     af8:	80 e0       	ldi	r24, 0x00	; 0
     afa:	e2 d1       	rcall	.+964    	; 0xec0 <DustValve>
     afc:	80 e0       	ldi	r24, 0x00	; 0
     afe:	90 e4       	ldi	r25, 0x40	; 64
     b00:	a8 e3       	ldi	r26, 0x38	; 56
     b02:	b0 e0       	ldi	r27, 0x00	; 0
     b04:	01 97       	sbiw	r24, 0x01	; 1
     b06:	a1 09       	sbc	r26, r1
     b08:	b1 09       	sbc	r27, r1
     b0a:	00 97       	sbiw	r24, 0x00	; 0
     b0c:	a1 05       	cpc	r26, r1
     b0e:	b1 05       	cpc	r27, r1
     b10:	c9 f7       	brne	.-14     	; 0xb04 <Act_TerminatSystem+0x86>
	delay_ms(3000);
	UpdateLine("系统停机",3);	
     b12:	63 e0       	ldi	r22, 0x03	; 3
     b14:	86 e9       	ldi	r24, 0x96	; 150
     b16:	94 e0       	ldi	r25, 0x04	; 4
     b18:	21 df       	rcall	.-446    	; 0x95c <UpdateLine>
	switch_start = false;
     b1a:	10 92 28 06 	sts	0x0628, r1
	
	
}
     b1e:	df 91       	pop	r29
     b20:	cf 91       	pop	r28
     b22:	1f 91       	pop	r17
     b24:	0f 91       	pop	r16
     b26:	ff 90       	pop	r15
     b28:	08 95       	ret

00000b2a <ADC_init>:
#include <asf.h>
#include <util/delay.h>
#include "adc.h"

void ADC_init(void){
	DDRF &=~(_BV(0)|_BV(1));
     b2a:	e1 e6       	ldi	r30, 0x61	; 97
     b2c:	f0 e0       	ldi	r31, 0x00	; 0
     b2e:	80 81       	ld	r24, Z
     b30:	8c 7f       	andi	r24, 0xFC	; 252
     b32:	80 83       	st	Z, r24
	
	ADCSRA =0x86;
     b34:	86 e8       	ldi	r24, 0x86	; 134
     b36:	86 b9       	out	0x06, r24	; 6
	ADMUX = 0x10;
     b38:	80 e1       	ldi	r24, 0x10	; 16
     b3a:	87 b9       	out	0x07, r24	; 7
	ADCSRA &=~_BV(ADFR);
     b3c:	35 98       	cbi	0x06, 5	; 6
     b3e:	08 95       	ret

00000b40 <ADC_readonce>:
}

uint16_t ADC_readonce(void){
	uint16_t result = 0;
	ADCSRA |= _BV(ADSC);
     b40:	36 9a       	sbi	0x06, 6	; 6
	while(!bit_is_set(ADCSRA,ADIF));
     b42:	34 9b       	sbis	0x06, 4	; 6
     b44:	fe cf       	rjmp	.-4      	; 0xb42 <ADC_readonce+0x2>
	#else
		//round up by default
		__ticks_dc = (uint32_t)(ceil(fabs(__tmp)));
	#endif

	__builtin_avr_delay_cycles(__ticks_dc);
     b46:	86 ef       	ldi	r24, 0xF6	; 246
     b48:	8a 95       	dec	r24
     b4a:	f1 f7       	brne	.-4      	; 0xb48 <ADC_readonce+0x8>
	_delay_us(100);
	result = ADCL;
     b4c:	24 b1       	in	r18, 0x04	; 4
	result += ADCH*256;
     b4e:	85 b1       	in	r24, 0x05	; 5
     b50:	90 e0       	ldi	r25, 0x00	; 0
     b52:	98 2f       	mov	r25, r24
     b54:	88 27       	eor	r24, r24

	return result;	
}
     b56:	82 0f       	add	r24, r18
     b58:	91 1d       	adc	r25, r1
     b5a:	08 95       	ret

00000b5c <ADC_read>:

float ADC_read(uint8_t target){
     b5c:	cf 92       	push	r12
     b5e:	df 92       	push	r13
     b60:	ef 92       	push	r14
     b62:	ff 92       	push	r15
     b64:	cf 93       	push	r28
	float buff = 0;
	uint8_t i = 0;
	switch(target){
     b66:	83 30       	cpi	r24, 0x03	; 3
     b68:	89 f0       	breq	.+34     	; 0xb8c <ADC_read+0x30>
     b6a:	28 f4       	brcc	.+10     	; 0xb76 <ADC_read+0x1a>
     b6c:	81 30       	cpi	r24, 0x01	; 1
     b6e:	41 f0       	breq	.+16     	; 0xb80 <ADC_read+0x24>
     b70:	82 30       	cpi	r24, 0x02	; 2
     b72:	49 f0       	breq	.+18     	; 0xb86 <ADC_read+0x2a>
     b74:	37 c0       	rjmp	.+110    	; 0xbe4 <ADC_read+0x88>
     b76:	84 30       	cpi	r24, 0x04	; 4
     b78:	61 f0       	breq	.+24     	; 0xb92 <ADC_read+0x36>
     b7a:	85 30       	cpi	r24, 0x05	; 5
     b7c:	69 f0       	breq	.+26     	; 0xb98 <ADC_read+0x3c>
     b7e:	32 c0       	rjmp	.+100    	; 0xbe4 <ADC_read+0x88>
		case PRESSURE:
			ADMUX = 0x10;
     b80:	80 e1       	ldi	r24, 0x10	; 16
     b82:	87 b9       	out	0x07, r24	; 7
			break;
     b84:	2f c0       	rjmp	.+94     	; 0xbe4 <ADC_read+0x88>
		case EMV:
			ADMUX = 0b00000100;
     b86:	84 e0       	ldi	r24, 0x04	; 4
     b88:	87 b9       	out	0x07, r24	; 7
			break;
     b8a:	2c c0       	rjmp	.+88     	; 0xbe4 <ADC_read+0x88>
		case VIN:
			ADMUX = 0b00000101;
     b8c:	85 e0       	ldi	r24, 0x05	; 5
     b8e:	87 b9       	out	0x07, r24	; 7
			break;
     b90:	29 c0       	rjmp	.+82     	; 0xbe4 <ADC_read+0x88>
		case VPP:
			ADMUX = 0b00000110;
     b92:	86 e0       	ldi	r24, 0x06	; 6
     b94:	87 b9       	out	0x07, r24	; 7
			break;
     b96:	26 c0       	rjmp	.+76     	; 0xbe4 <ADC_read+0x88>
		case VCC:
			ADMUX = 0b00000111;
     b98:	87 e0       	ldi	r24, 0x07	; 7
     b9a:	87 b9       	out	0x07, r24	; 7
			break;
     b9c:	23 c0       	rjmp	.+70     	; 0xbe4 <ADC_read+0x88>
		break;
		
	}
	
	for(i=0;i<8;i++)
		buff+= ADC_readonce();
     b9e:	d0 df       	rcall	.-96     	; 0xb40 <ADC_readonce>
     ba0:	bc 01       	movw	r22, r24
     ba2:	80 e0       	ldi	r24, 0x00	; 0
     ba4:	90 e0       	ldi	r25, 0x00	; 0
     ba6:	0e 94 ee 13 	call	0x27dc	; 0x27dc <__floatunsisf>
     baa:	9b 01       	movw	r18, r22
     bac:	ac 01       	movw	r20, r24
     bae:	c7 01       	movw	r24, r14
     bb0:	b6 01       	movw	r22, r12
     bb2:	0e 94 ed 12 	call	0x25da	; 0x25da <__addsf3>
     bb6:	6b 01       	movw	r12, r22
     bb8:	7c 01       	movw	r14, r24
     bba:	c1 50       	subi	r28, 0x01	; 1
		default:
		break;
		
	}
	
	for(i=0;i<8;i++)
     bbc:	81 f7       	brne	.-32     	; 0xb9e <ADC_read+0x42>
		buff+= ADC_readonce();
	buff /=8;
     bbe:	20 e0       	ldi	r18, 0x00	; 0
     bc0:	30 e0       	ldi	r19, 0x00	; 0
     bc2:	40 e0       	ldi	r20, 0x00	; 0
     bc4:	5e e3       	ldi	r21, 0x3E	; 62
     bc6:	0e 94 a4 14 	call	0x2948	; 0x2948 <__mulsf3>
	buff/=1024;
     bca:	20 e0       	ldi	r18, 0x00	; 0
     bcc:	30 e0       	ldi	r19, 0x00	; 0
     bce:	40 e8       	ldi	r20, 0x80	; 128
     bd0:	5a e3       	ldi	r21, 0x3A	; 58
     bd2:	0e 94 a4 14 	call	0x2948	; 0x2948 <__mulsf3>
	buff*=SCALE;
     bd6:	20 e0       	ldi	r18, 0x00	; 0
     bd8:	30 e0       	ldi	r19, 0x00	; 0
     bda:	4a e7       	ldi	r20, 0x7A	; 122
     bdc:	54 e4       	ldi	r21, 0x44	; 68
     bde:	0e 94 a4 14 	call	0x2948	; 0x2948 <__mulsf3>
     be2:	05 c0       	rjmp	.+10     	; 0xbee <ADC_read+0x92>
	result += ADCH*256;

	return result;	
}

float ADC_read(uint8_t target){
     be4:	c8 e0       	ldi	r28, 0x08	; 8
     be6:	c1 2c       	mov	r12, r1
     be8:	d1 2c       	mov	r13, r1
     bea:	76 01       	movw	r14, r12
     bec:	d8 cf       	rjmp	.-80     	; 0xb9e <ADC_read+0x42>
	buff /=8;
	buff/=1024;
	buff*=SCALE;
	return buff;
	
     bee:	cf 91       	pop	r28
     bf0:	ff 90       	pop	r15
     bf2:	ef 90       	pop	r14
     bf4:	df 90       	pop	r13
     bf6:	cf 90       	pop	r12
     bf8:	08 95       	ret

00000bfa <emv_refresh>:

void set_blower_interval(uint8_t intv_s){
	blower_interval_s = intv_s;
}
void set_blower_on_time(uint8_t time_ms){
	blower_on_time_ms = time_ms;
     bfa:	80 91 0f 01 	lds	r24, 0x010F
     bfe:	90 91 10 01 	lds	r25, 0x0110
     c02:	20 e1       	ldi	r18, 0x10	; 16
     c04:	e5 e6       	ldi	r30, 0x65	; 101
     c06:	f0 e0       	ldi	r31, 0x00	; 0
     c08:	99 23       	and	r25, r25
     c0a:	14 f4       	brge	.+4      	; 0xc10 <emv_refresh+0x16>
     c0c:	c5 9a       	sbi	0x18, 5	; 24
     c0e:	01 c0       	rjmp	.+2      	; 0xc12 <emv_refresh+0x18>
     c10:	c5 98       	cbi	0x18, 5	; 24
     c12:	88 0f       	add	r24, r24
     c14:	99 1f       	adc	r25, r25
     c16:	38 e1       	ldi	r19, 0x18	; 24
     c18:	3a 95       	dec	r19
     c1a:	f1 f7       	brne	.-4      	; 0xc18 <emv_refresh+0x1e>
     c1c:	00 c0       	rjmp	.+0      	; 0xc1e <emv_refresh+0x24>
     c1e:	30 81       	ld	r19, Z
     c20:	38 60       	ori	r19, 0x08	; 8
     c22:	30 83       	st	Z, r19
     c24:	38 e1       	ldi	r19, 0x18	; 24
     c26:	3a 95       	dec	r19
     c28:	f1 f7       	brne	.-4      	; 0xc26 <emv_refresh+0x2c>
     c2a:	00 c0       	rjmp	.+0      	; 0xc2c <emv_refresh+0x32>
     c2c:	30 81       	ld	r19, Z
     c2e:	37 7f       	andi	r19, 0xF7	; 247
     c30:	30 83       	st	Z, r19
     c32:	38 e1       	ldi	r19, 0x18	; 24
     c34:	3a 95       	dec	r19
     c36:	f1 f7       	brne	.-4      	; 0xc34 <emv_refresh+0x3a>
     c38:	00 c0       	rjmp	.+0      	; 0xc3a <emv_refresh+0x40>
     c3a:	21 50       	subi	r18, 0x01	; 1
     c3c:	29 f7       	brne	.-54     	; 0xc08 <emv_refresh+0xe>
     c3e:	c7 9a       	sbi	0x18, 7	; 24
     c40:	88 e1       	ldi	r24, 0x18	; 24
     c42:	8a 95       	dec	r24
     c44:	f1 f7       	brne	.-4      	; 0xc42 <emv_refresh+0x48>
     c46:	00 c0       	rjmp	.+0      	; 0xc48 <emv_refresh+0x4e>
     c48:	c7 98       	cbi	0x18, 7	; 24
     c4a:	08 95       	ret

00000c4c <emv_ports_init>:
     c4c:	87 b3       	in	r24, 0x17	; 23
     c4e:	80 6e       	ori	r24, 0xE0	; 224
     c50:	87 bb       	out	0x17, r24	; 23
     c52:	e4 e6       	ldi	r30, 0x64	; 100
     c54:	f0 e0       	ldi	r31, 0x00	; 0
     c56:	80 81       	ld	r24, Z
     c58:	88 61       	ori	r24, 0x18	; 24
     c5a:	80 83       	st	Z, r24
     c5c:	e5 e6       	ldi	r30, 0x65	; 101
     c5e:	f0 e0       	ldi	r31, 0x00	; 0
     c60:	80 81       	ld	r24, Z
     c62:	87 7f       	andi	r24, 0xF7	; 247
     c64:	80 83       	st	Z, r24
     c66:	c7 98       	cbi	0x18, 7	; 24
     c68:	80 81       	ld	r24, Z
     c6a:	80 61       	ori	r24, 0x10	; 16
     c6c:	80 83       	st	Z, r24
     c6e:	c6 98       	cbi	0x18, 6	; 24
     c70:	c4 cf       	rjmp	.-120    	; 0xbfa <emv_refresh>
     c72:	08 95       	ret

00000c74 <unset_emv_channel>:
     c74:	81 31       	cpi	r24, 0x11	; 17
     c76:	98 f4       	brcc	.+38     	; 0xc9e <unset_emv_channel+0x2a>
     c78:	21 e0       	ldi	r18, 0x01	; 1
     c7a:	30 e0       	ldi	r19, 0x00	; 0
     c7c:	a9 01       	movw	r20, r18
     c7e:	02 c0       	rjmp	.+4      	; 0xc84 <unset_emv_channel+0x10>
     c80:	44 0f       	add	r20, r20
     c82:	55 1f       	adc	r21, r21
     c84:	8a 95       	dec	r24
     c86:	e2 f7       	brpl	.-8      	; 0xc80 <unset_emv_channel+0xc>
     c88:	ca 01       	movw	r24, r20
     c8a:	20 91 0f 01 	lds	r18, 0x010F
     c8e:	30 91 10 01 	lds	r19, 0x0110
     c92:	82 2b       	or	r24, r18
     c94:	93 2b       	or	r25, r19
     c96:	90 93 10 01 	sts	0x0110, r25
     c9a:	80 93 0f 01 	sts	0x010F, r24
     c9e:	ad cf       	rjmp	.-166    	; 0xbfa <emv_refresh>
     ca0:	08 95       	ret

00000ca2 <set_emv_channel>:
     ca2:	81 31       	cpi	r24, 0x11	; 17
     ca4:	a8 f4       	brcc	.+42     	; 0xcd0 <set_emv_channel+0x2e>
     ca6:	21 e0       	ldi	r18, 0x01	; 1
     ca8:	30 e0       	ldi	r19, 0x00	; 0
     caa:	a9 01       	movw	r20, r18
     cac:	02 c0       	rjmp	.+4      	; 0xcb2 <set_emv_channel+0x10>
     cae:	44 0f       	add	r20, r20
     cb0:	55 1f       	adc	r21, r21
     cb2:	8a 95       	dec	r24
     cb4:	e2 f7       	brpl	.-8      	; 0xcae <set_emv_channel+0xc>
     cb6:	ca 01       	movw	r24, r20
     cb8:	80 95       	com	r24
     cba:	90 95       	com	r25
     cbc:	20 91 0f 01 	lds	r18, 0x010F
     cc0:	30 91 10 01 	lds	r19, 0x0110
     cc4:	82 23       	and	r24, r18
     cc6:	93 23       	and	r25, r19
     cc8:	90 93 10 01 	sts	0x0110, r25
     ccc:	80 93 0f 01 	sts	0x010F, r24
     cd0:	94 cf       	rjmp	.-216    	; 0xbfa <emv_refresh>
     cd2:	08 95       	ret

00000cd4 <blow_seq>:
     cd4:	80 91 30 06 	lds	r24, 0x0630
     cd8:	81 11       	cpse	r24, r1
     cda:	28 c0       	rjmp	.+80     	; 0xd2c <blow_seq+0x58>
     cdc:	80 91 2e 06 	lds	r24, 0x062E
     ce0:	90 91 2f 06 	lds	r25, 0x062F
     ce4:	89 2b       	or	r24, r25
     ce6:	11 f5       	brne	.+68     	; 0xd2c <blow_seq+0x58>
     ce8:	80 91 2c 06 	lds	r24, 0x062C
     cec:	90 91 2d 06 	lds	r25, 0x062D
     cf0:	89 2b       	or	r24, r25
     cf2:	e1 f4       	brne	.+56     	; 0xd2c <blow_seq+0x58>
     cf4:	80 e0       	ldi	r24, 0x00	; 0
     cf6:	d5 df       	rcall	.-86     	; 0xca2 <set_emv_channel>
     cf8:	81 e0       	ldi	r24, 0x01	; 1
     cfa:	80 93 2b 06 	sts	0x062B, r24
     cfe:	80 91 2e 06 	lds	r24, 0x062E
     d02:	90 91 2f 06 	lds	r25, 0x062F
     d06:	01 96       	adiw	r24, 0x01	; 1
     d08:	90 93 2f 06 	sts	0x062F, r25
     d0c:	80 93 2e 06 	sts	0x062E, r24
     d10:	30 91 0e 01 	lds	r19, 0x010E
     d14:	2d ec       	ldi	r18, 0xCD	; 205
     d16:	32 9f       	mul	r19, r18
     d18:	21 2d       	mov	r18, r1
     d1a:	11 24       	eor	r1, r1
     d1c:	26 95       	lsr	r18
     d1e:	26 95       	lsr	r18
     d20:	26 95       	lsr	r18
     d22:	30 e0       	ldi	r19, 0x00	; 0
     d24:	82 17       	cp	r24, r18
     d26:	93 07       	cpc	r25, r19
     d28:	b1 f5       	brne	.+108    	; 0xd96 <blow_seq+0xc2>
     d2a:	27 c0       	rjmp	.+78     	; 0xd7a <blow_seq+0xa6>
     d2c:	40 91 2b 06 	lds	r20, 0x062B
     d30:	44 23       	and	r20, r20
     d32:	b9 f0       	breq	.+46     	; 0xd62 <blow_seq+0x8e>
     d34:	80 91 2e 06 	lds	r24, 0x062E
     d38:	90 91 2f 06 	lds	r25, 0x062F
     d3c:	01 96       	adiw	r24, 0x01	; 1
     d3e:	90 93 2f 06 	sts	0x062F, r25
     d42:	80 93 2e 06 	sts	0x062E, r24
     d46:	30 91 0e 01 	lds	r19, 0x010E
     d4a:	2d ec       	ldi	r18, 0xCD	; 205
     d4c:	32 9f       	mul	r19, r18
     d4e:	21 2d       	mov	r18, r1
     d50:	11 24       	eor	r1, r1
     d52:	26 95       	lsr	r18
     d54:	26 95       	lsr	r18
     d56:	26 95       	lsr	r18
     d58:	30 e0       	ldi	r19, 0x00	; 0
     d5a:	82 17       	cp	r24, r18
     d5c:	93 07       	cpc	r25, r19
     d5e:	d9 f4       	brne	.+54     	; 0xd96 <blow_seq+0xc2>
     d60:	0a c0       	rjmp	.+20     	; 0xd76 <blow_seq+0xa2>
     d62:	80 91 2c 06 	lds	r24, 0x062C
     d66:	90 91 2d 06 	lds	r25, 0x062D
     d6a:	01 96       	adiw	r24, 0x01	; 1
     d6c:	90 93 2d 06 	sts	0x062D, r25
     d70:	80 93 2c 06 	sts	0x062C, r24
     d74:	10 c0       	rjmp	.+32     	; 0xd96 <blow_seq+0xc2>
     d76:	41 30       	cpi	r20, 0x01	; 1
     d78:	71 f4       	brne	.+28     	; 0xd96 <blow_seq+0xc2>
     d7a:	80 91 30 06 	lds	r24, 0x0630
     d7e:	7a df       	rcall	.-268    	; 0xc74 <unset_emv_channel>
     d80:	10 92 2b 06 	sts	0x062B, r1
     d84:	10 92 2f 06 	sts	0x062F, r1
     d88:	10 92 2e 06 	sts	0x062E, r1
     d8c:	80 91 30 06 	lds	r24, 0x0630
     d90:	8f 5f       	subi	r24, 0xFF	; 255
     d92:	80 93 30 06 	sts	0x0630, r24
     d96:	20 91 0d 01 	lds	r18, 0x010D
     d9a:	84 e6       	ldi	r24, 0x64	; 100
     d9c:	28 9f       	mul	r18, r24
     d9e:	90 01       	movw	r18, r0
     da0:	11 24       	eor	r1, r1
     da2:	80 91 2c 06 	lds	r24, 0x062C
     da6:	90 91 2d 06 	lds	r25, 0x062D
     daa:	28 17       	cp	r18, r24
     dac:	39 07       	cpc	r19, r25
     dae:	71 f4       	brne	.+28     	; 0xdcc <blow_seq+0xf8>
     db0:	80 91 2b 06 	lds	r24, 0x062B
     db4:	81 11       	cpse	r24, r1
     db6:	0a c0       	rjmp	.+20     	; 0xdcc <blow_seq+0xf8>
     db8:	80 91 30 06 	lds	r24, 0x0630
     dbc:	72 df       	rcall	.-284    	; 0xca2 <set_emv_channel>
     dbe:	81 e0       	ldi	r24, 0x01	; 1
     dc0:	80 93 2b 06 	sts	0x062B, r24
     dc4:	10 92 2d 06 	sts	0x062D, r1
     dc8:	10 92 2c 06 	sts	0x062C, r1
     dcc:	80 91 30 06 	lds	r24, 0x0630
     dd0:	80 31       	cpi	r24, 0x10	; 16
     dd2:	e1 f4       	brne	.+56     	; 0xe0c <blow_seq+0x138>
     dd4:	10 92 30 06 	sts	0x0630, r1
     dd8:	10 92 2d 06 	sts	0x062D, r1
     ddc:	10 92 2c 06 	sts	0x062C, r1
     de0:	10 92 2f 06 	sts	0x062F, r1
     de4:	10 92 2e 06 	sts	0x062E, r1
     de8:	80 91 39 06 	lds	r24, 0x0639
     dec:	90 91 3a 06 	lds	r25, 0x063A
     df0:	01 96       	adiw	r24, 0x01	; 1
     df2:	90 93 3a 06 	sts	0x063A, r25
     df6:	80 93 39 06 	sts	0x0639, r24
     dfa:	80 91 31 06 	lds	r24, 0x0631
     dfe:	81 11       	cpse	r24, r1
     e00:	05 c0       	rjmp	.+10     	; 0xe0c <blow_seq+0x138>
     e02:	8a e6       	ldi	r24, 0x6A	; 106
     e04:	96 e0       	ldi	r25, 0x06	; 6
     e06:	ed d7       	rcall	.+4058   	; 0x1de2 <Timer0_RemoveCallbackFunction>
     e08:	80 e0       	ldi	r24, 0x00	; 0
     e0a:	3d c0       	rjmp	.+122    	; 0xe86 <Clean>
     e0c:	08 95       	ret

00000e0e <start_sequence>:
}
uint8_t start_sequence(void){
	if(emv_working == true) 
     e0e:	80 91 31 06 	lds	r24, 0x0631
     e12:	81 11       	cpse	r24, r1
     e14:	0b c0       	rjmp	.+22     	; 0xe2c <start_sequence+0x1e>
	return 1;
	emv_working = true;
     e16:	81 e0       	ldi	r24, 0x01	; 1
     e18:	80 93 31 06 	sts	0x0631, r24
	Clean(true);
     e1c:	34 d0       	rcall	.+104    	; 0xe86 <Clean>
	Timer0_RegisterCallbackFunction(blow_seq,10);
     e1e:	6a e0       	ldi	r22, 0x0A	; 10
     e20:	70 e0       	ldi	r23, 0x00	; 0
     e22:	8a e6       	ldi	r24, 0x6A	; 106
     e24:	96 e0       	ldi	r25, 0x06	; 6
     e26:	88 d7       	rcall	.+3856   	; 0x1d38 <Timer0_RegisterCallbackFunction>
	return 0;
     e28:	80 e0       	ldi	r24, 0x00	; 0
     e2a:	08 95       	ret
void set_blower_on_time(uint8_t time_ms){
	blower_on_time_ms = time_ms;
}
uint8_t start_sequence(void){
	if(emv_working == true) 
	return 1;
     e2c:	81 e0       	ldi	r24, 0x01	; 1
	emv_working = true;
	Clean(true);
	Timer0_RegisterCallbackFunction(blow_seq,10);
	return 0;
}
     e2e:	08 95       	ret

00000e30 <stop_sequence>:

uint8_t stop_sequence(void){
	if(emv_working == false)
     e30:	80 91 31 06 	lds	r24, 0x0631
     e34:	88 23       	and	r24, r24
     e36:	21 f0       	breq	.+8      	; 0xe40 <stop_sequence+0x10>
	return 1;
	emv_working = false;
     e38:	10 92 31 06 	sts	0x0631, r1

	return 0;
     e3c:	80 e0       	ldi	r24, 0x00	; 0
     e3e:	08 95       	ret
	return 0;
}

uint8_t stop_sequence(void){
	if(emv_working == false)
	return 1;
     e40:	81 e0       	ldi	r24, 0x01	; 1
	emv_working = false;

	return 0;
	
}
     e42:	08 95       	ret

00000e44 <init_IO>:
		PORTB &=~_BV(0);
		PORTG |=_BV(0);
	} 
	else{
		PORTB |= _BV(0);
		PORTG &= ~_BV(0);
     e44:	b8 9a       	sbi	0x17, 0	; 23
     e46:	e1 e6       	ldi	r30, 0x61	; 97
     e48:	f0 e0       	ldi	r31, 0x00	; 0
     e4a:	80 81       	ld	r24, Z
     e4c:	88 60       	ori	r24, 0x08	; 8
     e4e:	80 83       	st	Z, r24
     e50:	e4 e6       	ldi	r30, 0x64	; 100
     e52:	f0 e0       	ldi	r31, 0x00	; 0
     e54:	80 81       	ld	r24, Z
     e56:	81 60       	ori	r24, 0x01	; 1
     e58:	80 83       	st	Z, r24
     e5a:	8f 9a       	sbi	0x11, 7	; 17
     e5c:	8e 9a       	sbi	0x11, 6	; 17
     e5e:	8d 9a       	sbi	0x11, 5	; 17
     e60:	8c 9a       	sbi	0x11, 4	; 17
     e62:	c0 9a       	sbi	0x18, 0	; 24
     e64:	e2 e6       	ldi	r30, 0x62	; 98
     e66:	f0 e0       	ldi	r31, 0x00	; 0
     e68:	80 81       	ld	r24, Z
     e6a:	88 60       	ori	r24, 0x08	; 8
     e6c:	80 83       	st	Z, r24
     e6e:	e5 e6       	ldi	r30, 0x65	; 101
     e70:	f0 e0       	ldi	r31, 0x00	; 0
     e72:	80 81       	ld	r24, Z
     e74:	8e 7f       	andi	r24, 0xFE	; 254
     e76:	80 83       	st	Z, r24
     e78:	82 b3       	in	r24, 0x12	; 18
     e7a:	8f 70       	andi	r24, 0x0F	; 15
     e7c:	82 bb       	out	0x12, r24	; 18
     e7e:	84 b3       	in	r24, 0x14	; 20
     e80:	80 7f       	andi	r24, 0xF0	; 240
     e82:	84 bb       	out	0x14, r24	; 20
     e84:	08 95       	ret

00000e86 <Clean>:
	}
	
}

void Clean(bool state){
	if(state==IO_ON){
     e86:	88 23       	and	r24, r24
     e88:	39 f0       	breq	.+14     	; 0xe98 <Clean+0x12>
		PORTF &=~_BV(3);
     e8a:	e2 e6       	ldi	r30, 0x62	; 98
     e8c:	f0 e0       	ldi	r31, 0x00	; 0
     e8e:	80 81       	ld	r24, Z
     e90:	87 7f       	andi	r24, 0xF7	; 247
     e92:	80 83       	st	Z, r24
		PORTD |= _BV(7);
     e94:	97 9a       	sbi	0x12, 7	; 18
     e96:	08 95       	ret
	}
	else{
		PORTF |= _BV(3);
     e98:	e2 e6       	ldi	r30, 0x62	; 98
     e9a:	f0 e0       	ldi	r31, 0x00	; 0
     e9c:	80 81       	ld	r24, Z
     e9e:	88 60       	ori	r24, 0x08	; 8
     ea0:	80 83       	st	Z, r24
		PORTD &= ~_BV(7);
     ea2:	97 98       	cbi	0x12, 7	; 18
     ea4:	08 95       	ret

00000ea6 <Airfan>:
	}
	
}

void Airfan(uint8_t mode){
	if(mode==STAR){
     ea6:	81 30       	cpi	r24, 0x01	; 1
     ea8:	19 f4       	brne	.+6      	; 0xeb0 <Airfan+0xa>
		PORTD |= _BV(6); 
     eaa:	96 9a       	sbi	0x12, 6	; 18
		PORTD &= ~_BV(5);
     eac:	95 98       	cbi	0x12, 5	; 18
     eae:	08 95       	ret
	}
	else if(mode == DELTA){
     eb0:	82 30       	cpi	r24, 0x02	; 2
     eb2:	19 f4       	brne	.+6      	; 0xeba <Airfan+0x14>
		PORTD &= ~_BV(6);
     eb4:	96 98       	cbi	0x12, 6	; 18
		PORTD |= _BV(5); 
     eb6:	95 9a       	sbi	0x12, 5	; 18
     eb8:	08 95       	ret
	}
	else{
		PORTD &= ~_BV(5);
     eba:	95 98       	cbi	0x12, 5	; 18
		PORTD &= ~_BV(6); 
     ebc:	96 98       	cbi	0x12, 6	; 18
     ebe:	08 95       	ret

00000ec0 <DustValve>:
	}
	
}

void DustValve(uint8_t sw){
	if(sw == IO_ON)
     ec0:	81 30       	cpi	r24, 0x01	; 1
     ec2:	11 f4       	brne	.+4      	; 0xec8 <DustValve+0x8>
		PORTD |= _BV(4);
     ec4:	94 9a       	sbi	0x12, 4	; 18
     ec6:	08 95       	ret
	else
		PORTD &= ~_BV(4);
     ec8:	94 98       	cbi	0x12, 4	; 18
     eca:	08 95       	ret

00000ecc <START_Read>:
	
}

bool START_Read(void){
	if(PINC & _BV(2))
     ecc:	83 b3       	in	r24, 0x13	; 19
     ece:	82 fb       	bst	r24, 2
     ed0:	88 27       	eor	r24, r24
     ed2:	80 f9       	bld	r24, 0
		return false;
	else
		return true;
}
     ed4:	91 e0       	ldi	r25, 0x01	; 1
     ed6:	89 27       	eor	r24, r25
     ed8:	08 95       	ret

00000eda <DrawScreen>:
//	CurrentState				UP_NEXT					DOWN_NEXT						LEFT_NEXT					RIGHT_NEXT					ENT_NEXT					UP_ACTION		DOWN_ACTION			LEFT_ACTION		RIGHT_ACTION		ENT_ACTION		TIMER_ACTI
	  


	void DrawScreen(void){
		lcd12864_clear();
     eda:	0e 94 f1 0f 	call	0x1fe2	; 0x1fe2 <lcd12864_clear>
		lcd12864_set_pos(0,1);
     ede:	61 e0       	ldi	r22, 0x01	; 1
     ee0:	80 e0       	ldi	r24, 0x00	; 0
     ee2:	0e 94 fb 0f 	call	0x1ff6	; 0x1ff6 <lcd12864_set_pos>
		lcd12864_write_str(SYS_Screen_Buffer.line[0]);
     ee6:	80 91 3b 06 	lds	r24, 0x063B
     eea:	90 91 3c 06 	lds	r25, 0x063C
     eee:	0e 94 16 10 	call	0x202c	; 0x202c <lcd12864_write_str>
		lcd12864_set_pos(0,2);
     ef2:	62 e0       	ldi	r22, 0x02	; 2
     ef4:	80 e0       	ldi	r24, 0x00	; 0
     ef6:	0e 94 fb 0f 	call	0x1ff6	; 0x1ff6 <lcd12864_set_pos>
		lcd12864_write_str(SYS_Screen_Buffer.line[1]);
     efa:	80 91 3d 06 	lds	r24, 0x063D
     efe:	90 91 3e 06 	lds	r25, 0x063E
     f02:	0e 94 16 10 	call	0x202c	; 0x202c <lcd12864_write_str>
		lcd12864_set_pos(0,3);
     f06:	63 e0       	ldi	r22, 0x03	; 3
     f08:	80 e0       	ldi	r24, 0x00	; 0
     f0a:	0e 94 fb 0f 	call	0x1ff6	; 0x1ff6 <lcd12864_set_pos>
		lcd12864_write_str(SYS_Screen_Buffer.line[2]);
     f0e:	80 91 3f 06 	lds	r24, 0x063F
     f12:	90 91 40 06 	lds	r25, 0x0640
     f16:	0e 94 16 10 	call	0x202c	; 0x202c <lcd12864_write_str>
		lcd12864_set_pos(0,4);
     f1a:	64 e0       	ldi	r22, 0x04	; 4
     f1c:	80 e0       	ldi	r24, 0x00	; 0
     f1e:	0e 94 fb 0f 	call	0x1ff6	; 0x1ff6 <lcd12864_set_pos>
		lcd12864_write_str(SYS_Screen_Buffer.line[3]);
     f22:	80 91 41 06 	lds	r24, 0x0641
     f26:	90 91 42 06 	lds	r25, 0x0642
     f2a:	0e 94 16 10 	call	0x202c	; 0x202c <lcd12864_write_str>
		lcd12864_Focus(SYS_Screen_Buffer.menu, SYS_Screen_Buffer.index, SYS_Screen_Buffer.focus);		
     f2e:	40 91 45 06 	lds	r20, 0x0645
     f32:	60 91 44 06 	lds	r22, 0x0644
     f36:	80 91 43 06 	lds	r24, 0x0643
     f3a:	0c 94 b4 11 	jmp	0x2368	; 0x2368 <lcd12864_Focus>
     f3e:	08 95       	ret

00000f40 <FindState>:
	}
	
Type_State *FindState(uint16_t statename){
		for(uint8_t i=0; i<STATE_LIST_LENGTH;i++){
			if(State_List[i].Current_State == statename)
     f40:	20 91 11 01 	lds	r18, 0x0111
     f44:	30 91 12 01 	lds	r19, 0x0112
     f48:	28 17       	cp	r18, r24
     f4a:	39 07       	cpc	r19, r25
     f4c:	59 f0       	breq	.+22     	; 0xf64 <FindState+0x24>
     f4e:	e9 e2       	ldi	r30, 0x29	; 41
     f50:	f1 e0       	ldi	r31, 0x01	; 1
     f52:	21 e0       	ldi	r18, 0x01	; 1
     f54:	30 e0       	ldi	r19, 0x00	; 0
     f56:	b9 01       	movw	r22, r18
     f58:	40 81       	ld	r20, Z
     f5a:	51 81       	ldd	r21, Z+1	; 0x01
     f5c:	48 17       	cp	r20, r24
     f5e:	59 07       	cpc	r21, r25
     f60:	91 f4       	brne	.+36     	; 0xf86 <FindState+0x46>
     f62:	02 c0       	rjmp	.+4      	; 0xf68 <FindState+0x28>
     f64:	60 e0       	ldi	r22, 0x00	; 0
     f66:	70 e0       	ldi	r23, 0x00	; 0
			return &State_List[i];
     f68:	cb 01       	movw	r24, r22
     f6a:	88 0f       	add	r24, r24
     f6c:	99 1f       	adc	r25, r25
     f6e:	68 0f       	add	r22, r24
     f70:	79 1f       	adc	r23, r25
     f72:	cb 01       	movw	r24, r22
     f74:	88 0f       	add	r24, r24
     f76:	99 1f       	adc	r25, r25
     f78:	88 0f       	add	r24, r24
     f7a:	99 1f       	adc	r25, r25
     f7c:	88 0f       	add	r24, r24
     f7e:	99 1f       	adc	r25, r25
     f80:	8f 5e       	subi	r24, 0xEF	; 239
     f82:	9e 4f       	sbci	r25, 0xFE	; 254
     f84:	08 95       	ret
     f86:	2f 5f       	subi	r18, 0xFF	; 255
     f88:	3f 4f       	sbci	r19, 0xFF	; 255
     f8a:	78 96       	adiw	r30, 0x18	; 24
		lcd12864_write_str(SYS_Screen_Buffer.line[3]);
		lcd12864_Focus(SYS_Screen_Buffer.menu, SYS_Screen_Buffer.index, SYS_Screen_Buffer.focus);		
	}
	
Type_State *FindState(uint16_t statename){
		for(uint8_t i=0; i<STATE_LIST_LENGTH;i++){
     f8c:	2d 31       	cpi	r18, 0x1D	; 29
     f8e:	31 05       	cpc	r19, r1
     f90:	11 f7       	brne	.-60     	; 0xf56 <FindState+0x16>
			if(State_List[i].Current_State == statename)
			return &State_List[i];
		}
		return NULL;
     f92:	80 e0       	ldi	r24, 0x00	; 0
     f94:	90 e0       	ldi	r25, 0x00	; 0
		
	}
     f96:	08 95       	ret

00000f98 <State_Update>:
		lcd12864_Focus(0,0,0);

	}
	
	void State_Update(void){
		switch(SYS_State->Current_State){
     f98:	e0 91 34 06 	lds	r30, 0x0634
     f9c:	f0 91 35 06 	lds	r31, 0x0635
     fa0:	80 81       	ld	r24, Z
     fa2:	91 81       	ldd	r25, Z+1	; 0x01
     fa4:	82 30       	cpi	r24, 0x02	; 2
     fa6:	20 e3       	ldi	r18, 0x30	; 48
     fa8:	92 07       	cpc	r25, r18
     faa:	09 f4       	brne	.+2      	; 0xfae <State_Update+0x16>
     fac:	8f c2       	rjmp	.+1310   	; 0x14cc <__stack+0x3cd>
     fae:	e0 f5       	brcc	.+120    	; 0x1028 <State_Update+0x90>
     fb0:	81 30       	cpi	r24, 0x01	; 1
     fb2:	20 e2       	ldi	r18, 0x20	; 32
     fb4:	92 07       	cpc	r25, r18
     fb6:	09 f4       	brne	.+2      	; 0xfba <State_Update+0x22>
     fb8:	71 c1       	rjmp	.+738    	; 0x129c <__stack+0x19d>
     fba:	d0 f4       	brcc	.+52     	; 0xff0 <State_Update+0x58>
     fbc:	82 30       	cpi	r24, 0x02	; 2
     fbe:	20 e1       	ldi	r18, 0x10	; 16
     fc0:	92 07       	cpc	r25, r18
     fc2:	09 f4       	brne	.+2      	; 0xfc6 <State_Update+0x2e>
     fc4:	cb c0       	rjmp	.+406    	; 0x115c <__stack+0x5d>
     fc6:	40 f4       	brcc	.+16     	; 0xfd8 <State_Update+0x40>
     fc8:	00 97       	sbiw	r24, 0x00	; 0
     fca:	09 f4       	brne	.+2      	; 0xfce <State_Update+0x36>
     fcc:	6b c0       	rjmp	.+214    	; 0x10a4 <State_Update+0x10c>
     fce:	81 30       	cpi	r24, 0x01	; 1
     fd0:	90 41       	sbci	r25, 0x10	; 16
     fd2:	09 f4       	brne	.+2      	; 0xfd6 <State_Update+0x3e>
     fd4:	9b c0       	rjmp	.+310    	; 0x110c <__stack+0xd>
     fd6:	27 c5       	rjmp	.+2638   	; 0x1a26 <__stack+0x927>
     fd8:	84 30       	cpi	r24, 0x04	; 4
     fda:	20 e1       	ldi	r18, 0x10	; 16
     fdc:	92 07       	cpc	r25, r18
     fde:	09 f4       	brne	.+2      	; 0xfe2 <State_Update+0x4a>
     fe0:	0d c1       	rjmp	.+538    	; 0x11fc <__stack+0xfd>
     fe2:	08 f4       	brcc	.+2      	; 0xfe6 <State_Update+0x4e>
     fe4:	e3 c0       	rjmp	.+454    	; 0x11ac <__stack+0xad>
     fe6:	85 30       	cpi	r24, 0x05	; 5
     fe8:	90 41       	sbci	r25, 0x10	; 16
     fea:	09 f4       	brne	.+2      	; 0xfee <State_Update+0x56>
     fec:	2f c1       	rjmp	.+606    	; 0x124c <__stack+0x14d>
     fee:	1b c5       	rjmp	.+2614   	; 0x1a26 <__stack+0x927>
     ff0:	84 30       	cpi	r24, 0x04	; 4
     ff2:	20 e2       	ldi	r18, 0x20	; 32
     ff4:	92 07       	cpc	r25, r18
     ff6:	09 f4       	brne	.+2      	; 0xffa <State_Update+0x62>
     ff8:	c9 c1       	rjmp	.+914    	; 0x138c <__stack+0x28d>
     ffa:	50 f4       	brcc	.+20     	; 0x1010 <State_Update+0x78>
     ffc:	82 30       	cpi	r24, 0x02	; 2
     ffe:	20 e2       	ldi	r18, 0x20	; 32
    1000:	92 07       	cpc	r25, r18
    1002:	09 f4       	brne	.+2      	; 0x1006 <State_Update+0x6e>
    1004:	73 c1       	rjmp	.+742    	; 0x12ec <__stack+0x1ed>
    1006:	83 30       	cpi	r24, 0x03	; 3
    1008:	90 42       	sbci	r25, 0x20	; 32
    100a:	09 f4       	brne	.+2      	; 0x100e <State_Update+0x76>
    100c:	97 c1       	rjmp	.+814    	; 0x133c <__stack+0x23d>
    100e:	0b c5       	rjmp	.+2582   	; 0x1a26 <__stack+0x927>
    1010:	86 30       	cpi	r24, 0x06	; 6
    1012:	20 e2       	ldi	r18, 0x20	; 32
    1014:	92 07       	cpc	r25, r18
    1016:	09 f4       	brne	.+2      	; 0x101a <State_Update+0x82>
    1018:	09 c2       	rjmp	.+1042   	; 0x142c <__stack+0x32d>
    101a:	08 f4       	brcc	.+2      	; 0x101e <State_Update+0x86>
    101c:	df c1       	rjmp	.+958    	; 0x13dc <__stack+0x2dd>
    101e:	81 30       	cpi	r24, 0x01	; 1
    1020:	90 43       	sbci	r25, 0x30	; 48
    1022:	09 f4       	brne	.+2      	; 0x1026 <State_Update+0x8e>
    1024:	2b c2       	rjmp	.+1110   	; 0x147c <__stack+0x37d>
    1026:	ff c4       	rjmp	.+2558   	; 0x1a26 <__stack+0x927>
    1028:	84 30       	cpi	r24, 0x04	; 4
    102a:	21 e3       	ldi	r18, 0x31	; 49
    102c:	92 07       	cpc	r25, r18
    102e:	09 f4       	brne	.+2      	; 0x1032 <State_Update+0x9a>
    1030:	8c c3       	rjmp	.+1816   	; 0x174a <__stack+0x64b>
    1032:	e0 f4       	brcc	.+56     	; 0x106c <State_Update+0xd4>
    1034:	85 30       	cpi	r24, 0x05	; 5
    1036:	20 e3       	ldi	r18, 0x30	; 48
    1038:	92 07       	cpc	r25, r18
    103a:	09 f4       	brne	.+2      	; 0x103e <State_Update+0xa6>
    103c:	bf c2       	rjmp	.+1406   	; 0x15bc <__stack+0x4bd>
    103e:	50 f4       	brcc	.+20     	; 0x1054 <State_Update+0xbc>
    1040:	83 30       	cpi	r24, 0x03	; 3
    1042:	20 e3       	ldi	r18, 0x30	; 48
    1044:	92 07       	cpc	r25, r18
    1046:	09 f4       	brne	.+2      	; 0x104a <State_Update+0xb2>
    1048:	69 c2       	rjmp	.+1234   	; 0x151c <__stack+0x41d>
    104a:	84 30       	cpi	r24, 0x04	; 4
    104c:	90 43       	sbci	r25, 0x30	; 48
    104e:	09 f4       	brne	.+2      	; 0x1052 <State_Update+0xba>
    1050:	8d c2       	rjmp	.+1306   	; 0x156c <__stack+0x46d>
    1052:	e9 c4       	rjmp	.+2514   	; 0x1a26 <__stack+0x927>
    1054:	82 30       	cpi	r24, 0x02	; 2
    1056:	21 e3       	ldi	r18, 0x31	; 49
    1058:	92 07       	cpc	r25, r18
    105a:	09 f4       	brne	.+2      	; 0x105e <State_Update+0xc6>
    105c:	0c c3       	rjmp	.+1560   	; 0x1676 <__stack+0x577>
    105e:	08 f0       	brcs	.+2      	; 0x1062 <State_Update+0xca>
    1060:	3f c3       	rjmp	.+1662   	; 0x16e0 <__stack+0x5e1>
    1062:	81 30       	cpi	r24, 0x01	; 1
    1064:	91 43       	sbci	r25, 0x31	; 49
    1066:	09 f4       	brne	.+2      	; 0x106a <State_Update+0xd2>
    1068:	d1 c2       	rjmp	.+1442   	; 0x160c <__stack+0x50d>
    106a:	dd c4       	rjmp	.+2490   	; 0x1a26 <__stack+0x927>
    106c:	83 31       	cpi	r24, 0x13	; 19
    106e:	21 e3       	ldi	r18, 0x31	; 49
    1070:	92 07       	cpc	r25, r18
    1072:	09 f4       	brne	.+2      	; 0x1076 <State_Update+0xde>
    1074:	00 c4       	rjmp	.+2048   	; 0x1876 <__stack+0x777>
    1076:	50 f4       	brcc	.+20     	; 0x108c <State_Update+0xf4>
    1078:	81 31       	cpi	r24, 0x11	; 17
    107a:	21 e3       	ldi	r18, 0x31	; 49
    107c:	92 07       	cpc	r25, r18
    107e:	09 f4       	brne	.+2      	; 0x1082 <State_Update+0xea>
    1080:	8f c3       	rjmp	.+1822   	; 0x17a0 <__stack+0x6a1>
    1082:	82 31       	cpi	r24, 0x12	; 18
    1084:	91 43       	sbci	r25, 0x31	; 49
    1086:	09 f4       	brne	.+2      	; 0x108a <State_Update+0xf2>
    1088:	c1 c3       	rjmp	.+1922   	; 0x180c <__stack+0x70d>
    108a:	cd c4       	rjmp	.+2458   	; 0x1a26 <__stack+0x927>
    108c:	85 31       	cpi	r24, 0x15	; 21
    108e:	21 e3       	ldi	r18, 0x31	; 49
    1090:	92 07       	cpc	r25, r18
    1092:	09 f4       	brne	.+2      	; 0x1096 <State_Update+0xfe>
    1094:	5c c4       	rjmp	.+2232   	; 0x194e <__stack+0x84f>
    1096:	08 f4       	brcc	.+2      	; 0x109a <State_Update+0x102>
    1098:	24 c4       	rjmp	.+2120   	; 0x18e2 <__stack+0x7e3>
    109a:	86 31       	cpi	r24, 0x16	; 22
    109c:	91 43       	sbci	r25, 0x31	; 49
    109e:	09 f4       	brne	.+2      	; 0x10a2 <State_Update+0x10a>
    10a0:	8c c4       	rjmp	.+2328   	; 0x19ba <__stack+0x8bb>
    10a2:	c1 c4       	rjmp	.+2434   	; 0x1a26 <__stack+0x927>
			case MENU_STATE_MAIN:
				SYS_Screen_Buffer.line[0] = Display_Strings[0];
    10a4:	80 91 c9 03 	lds	r24, 0x03C9
    10a8:	90 91 ca 03 	lds	r25, 0x03CA
    10ac:	90 93 3c 06 	sts	0x063C, r25
    10b0:	80 93 3b 06 	sts	0x063B, r24
				SYS_Screen_Buffer.line[1] = Display_Strings[1];
    10b4:	80 91 cb 03 	lds	r24, 0x03CB
    10b8:	90 91 cc 03 	lds	r25, 0x03CC
    10bc:	90 93 3e 06 	sts	0x063E, r25
    10c0:	80 93 3d 06 	sts	0x063D, r24
				if(swtich_monitoring==true)
    10c4:	80 91 27 06 	lds	r24, 0x0627
    10c8:	88 23       	and	r24, r24
    10ca:	49 f0       	breq	.+18     	; 0x10de <State_Update+0x146>
				SYS_Screen_Buffer.line[2] = Display_Strings[2];
    10cc:	80 91 cd 03 	lds	r24, 0x03CD
    10d0:	90 91 ce 03 	lds	r25, 0x03CE
    10d4:	90 93 40 06 	sts	0x0640, r25
    10d8:	80 93 3f 06 	sts	0x063F, r24
    10dc:	08 c0       	rjmp	.+16     	; 0x10ee <State_Update+0x156>
				else
				SYS_Screen_Buffer.line[2] = Display_Strings[32];
    10de:	80 91 09 04 	lds	r24, 0x0409
    10e2:	90 91 0a 04 	lds	r25, 0x040A
    10e6:	90 93 40 06 	sts	0x0640, r25
    10ea:	80 93 3f 06 	sts	0x063F, r24
				SYS_Screen_Buffer.line[3] = Display_Strings[3];
    10ee:	80 91 cf 03 	lds	r24, 0x03CF
    10f2:	90 91 d0 03 	lds	r25, 0x03D0
    10f6:	90 93 42 06 	sts	0x0642, r25
    10fa:	80 93 41 06 	sts	0x0641, r24
				SYS_Screen_Buffer.menu = 0;
    10fe:	10 92 43 06 	sts	0x0643, r1
				SYS_Screen_Buffer.index = 0;
    1102:	10 92 44 06 	sts	0x0644, r1
				SYS_Screen_Buffer.focus = 0;
    1106:	10 92 45 06 	sts	0x0645, r1
				break;
    110a:	08 95       	ret
			case MENU_STATE_ITEMLIST_P1:
				SYS_Screen_Buffer.line[0] = Display_Strings[5]; 
    110c:	80 91 d3 03 	lds	r24, 0x03D3
    1110:	90 91 d4 03 	lds	r25, 0x03D4
    1114:	90 93 3c 06 	sts	0x063C, r25
    1118:	80 93 3b 06 	sts	0x063B, r24
				SYS_Screen_Buffer.line[1] = Display_Strings[6];
    111c:	80 91 d5 03 	lds	r24, 0x03D5
    1120:	90 91 d6 03 	lds	r25, 0x03D6
    1124:	90 93 3e 06 	sts	0x063E, r25
    1128:	80 93 3d 06 	sts	0x063D, r24
				SYS_Screen_Buffer.line[2] = Display_Strings[7];
    112c:	80 91 d7 03 	lds	r24, 0x03D7
    1130:	90 91 d8 03 	lds	r25, 0x03D8
    1134:	90 93 40 06 	sts	0x0640, r25
    1138:	80 93 3f 06 	sts	0x063F, r24
				SYS_Screen_Buffer.line[3] = Display_Strings[28];
    113c:	80 91 01 04 	lds	r24, 0x0401
    1140:	90 91 02 04 	lds	r25, 0x0402
    1144:	90 93 42 06 	sts	0x0642, r25
    1148:	80 93 41 06 	sts	0x0641, r24
				SYS_Screen_Buffer.menu = 0;
    114c:	10 92 43 06 	sts	0x0643, r1
				SYS_Screen_Buffer.index = 1;
    1150:	81 e0       	ldi	r24, 0x01	; 1
    1152:	80 93 44 06 	sts	0x0644, r24
				SYS_Screen_Buffer.focus = 0;
    1156:	10 92 45 06 	sts	0x0645, r1
				break;
    115a:	08 95       	ret
			case MENU_STATE_ITEMLIST_P2:
				SYS_Screen_Buffer.line[0] = Display_Strings[5];
    115c:	80 91 d3 03 	lds	r24, 0x03D3
    1160:	90 91 d4 03 	lds	r25, 0x03D4
    1164:	90 93 3c 06 	sts	0x063C, r25
    1168:	80 93 3b 06 	sts	0x063B, r24
				SYS_Screen_Buffer.line[1] = Display_Strings[6];
    116c:	80 91 d5 03 	lds	r24, 0x03D5
    1170:	90 91 d6 03 	lds	r25, 0x03D6
    1174:	90 93 3e 06 	sts	0x063E, r25
    1178:	80 93 3d 06 	sts	0x063D, r24
				SYS_Screen_Buffer.line[2] = Display_Strings[7];
    117c:	80 91 d7 03 	lds	r24, 0x03D7
    1180:	90 91 d8 03 	lds	r25, 0x03D8
    1184:	90 93 40 06 	sts	0x0640, r25
    1188:	80 93 3f 06 	sts	0x063F, r24
				SYS_Screen_Buffer.line[3] = Display_Strings[28];
    118c:	80 91 01 04 	lds	r24, 0x0401
    1190:	90 91 02 04 	lds	r25, 0x0402
    1194:	90 93 42 06 	sts	0x0642, r25
    1198:	80 93 41 06 	sts	0x0641, r24
				SYS_Screen_Buffer.menu = 0;
    119c:	10 92 43 06 	sts	0x0643, r1
				SYS_Screen_Buffer.index = 2;
    11a0:	82 e0       	ldi	r24, 0x02	; 2
    11a2:	80 93 44 06 	sts	0x0644, r24
				SYS_Screen_Buffer.focus = 0;
    11a6:	10 92 45 06 	sts	0x0645, r1
				break;
    11aa:	08 95       	ret
			case MENU_STATE_ITEMLIST_P3:
				SYS_Screen_Buffer.line[0] = Display_Strings[5];
    11ac:	80 91 d3 03 	lds	r24, 0x03D3
    11b0:	90 91 d4 03 	lds	r25, 0x03D4
    11b4:	90 93 3c 06 	sts	0x063C, r25
    11b8:	80 93 3b 06 	sts	0x063B, r24
				SYS_Screen_Buffer.line[1] = Display_Strings[6];
    11bc:	80 91 d5 03 	lds	r24, 0x03D5
    11c0:	90 91 d6 03 	lds	r25, 0x03D6
    11c4:	90 93 3e 06 	sts	0x063E, r25
    11c8:	80 93 3d 06 	sts	0x063D, r24
				SYS_Screen_Buffer.line[2] = Display_Strings[7];
    11cc:	80 91 d7 03 	lds	r24, 0x03D7
    11d0:	90 91 d8 03 	lds	r25, 0x03D8
    11d4:	90 93 40 06 	sts	0x0640, r25
    11d8:	80 93 3f 06 	sts	0x063F, r24
				SYS_Screen_Buffer.line[3] = Display_Strings[28];
    11dc:	80 91 01 04 	lds	r24, 0x0401
    11e0:	90 91 02 04 	lds	r25, 0x0402
    11e4:	90 93 42 06 	sts	0x0642, r25
    11e8:	80 93 41 06 	sts	0x0641, r24
				SYS_Screen_Buffer.menu = 0;
    11ec:	10 92 43 06 	sts	0x0643, r1
				SYS_Screen_Buffer.index = 3;
    11f0:	83 e0       	ldi	r24, 0x03	; 3
    11f2:	80 93 44 06 	sts	0x0644, r24
				SYS_Screen_Buffer.focus = 0;
    11f6:	10 92 45 06 	sts	0x0645, r1
				break;
    11fa:	08 95       	ret
			case MENU_STATE_ITEMLIST_P4:
				SYS_Screen_Buffer.line[0] = Display_Strings[8];
    11fc:	80 91 d9 03 	lds	r24, 0x03D9
    1200:	90 91 da 03 	lds	r25, 0x03DA
    1204:	90 93 3c 06 	sts	0x063C, r25
    1208:	80 93 3b 06 	sts	0x063B, r24
				SYS_Screen_Buffer.line[1] = Display_Strings[9];
    120c:	80 91 db 03 	lds	r24, 0x03DB
    1210:	90 91 dc 03 	lds	r25, 0x03DC
    1214:	90 93 3e 06 	sts	0x063E, r25
    1218:	80 93 3d 06 	sts	0x063D, r24
				SYS_Screen_Buffer.line[2] = Display_Strings[0];
    121c:	80 91 c9 03 	lds	r24, 0x03C9
    1220:	90 91 ca 03 	lds	r25, 0x03CA
    1224:	90 93 40 06 	sts	0x0640, r25
    1228:	80 93 3f 06 	sts	0x063F, r24
				SYS_Screen_Buffer.line[3] = Display_Strings[28];
    122c:	80 91 01 04 	lds	r24, 0x0401
    1230:	90 91 02 04 	lds	r25, 0x0402
    1234:	90 93 42 06 	sts	0x0642, r25
    1238:	80 93 41 06 	sts	0x0641, r24
				SYS_Screen_Buffer.menu = 0;
    123c:	10 92 43 06 	sts	0x0643, r1
				SYS_Screen_Buffer.index = 1;
    1240:	81 e0       	ldi	r24, 0x01	; 1
    1242:	80 93 44 06 	sts	0x0644, r24
				SYS_Screen_Buffer.focus = 0;
    1246:	10 92 45 06 	sts	0x0645, r1
				break;
    124a:	08 95       	ret
			case MENU_STATE_ITEMLIST_P5:
				SYS_Screen_Buffer.line[0] = Display_Strings[8];
    124c:	80 91 d9 03 	lds	r24, 0x03D9
    1250:	90 91 da 03 	lds	r25, 0x03DA
    1254:	90 93 3c 06 	sts	0x063C, r25
    1258:	80 93 3b 06 	sts	0x063B, r24
				SYS_Screen_Buffer.line[1] = Display_Strings[9];
    125c:	80 91 db 03 	lds	r24, 0x03DB
    1260:	90 91 dc 03 	lds	r25, 0x03DC
    1264:	90 93 3e 06 	sts	0x063E, r25
    1268:	80 93 3d 06 	sts	0x063D, r24
				SYS_Screen_Buffer.line[2] = Display_Strings[0];
    126c:	80 91 c9 03 	lds	r24, 0x03C9
    1270:	90 91 ca 03 	lds	r25, 0x03CA
    1274:	90 93 40 06 	sts	0x0640, r25
    1278:	80 93 3f 06 	sts	0x063F, r24
				SYS_Screen_Buffer.line[3] = Display_Strings[28];
    127c:	80 91 01 04 	lds	r24, 0x0401
    1280:	90 91 02 04 	lds	r25, 0x0402
    1284:	90 93 42 06 	sts	0x0642, r25
    1288:	80 93 41 06 	sts	0x0641, r24
				SYS_Screen_Buffer.menu = 0;
    128c:	10 92 43 06 	sts	0x0643, r1
				SYS_Screen_Buffer.index = 2;
    1290:	82 e0       	ldi	r24, 0x02	; 2
    1292:	80 93 44 06 	sts	0x0644, r24
				SYS_Screen_Buffer.focus = 0;
    1296:	10 92 45 06 	sts	0x0645, r1
				break;
    129a:	08 95       	ret
			case MENU_STATE_SYS_P1:
				SYS_Screen_Buffer.line[0] = Display_Strings[10];
    129c:	80 91 dd 03 	lds	r24, 0x03DD
    12a0:	90 91 de 03 	lds	r25, 0x03DE
    12a4:	90 93 3c 06 	sts	0x063C, r25
    12a8:	80 93 3b 06 	sts	0x063B, r24
				SYS_Screen_Buffer.line[1] = Display_Strings[11];
    12ac:	80 91 df 03 	lds	r24, 0x03DF
    12b0:	90 91 e0 03 	lds	r25, 0x03E0
    12b4:	90 93 3e 06 	sts	0x063E, r25
    12b8:	80 93 3d 06 	sts	0x063D, r24
				SYS_Screen_Buffer.line[2] = Display_Strings[12];
    12bc:	80 91 e1 03 	lds	r24, 0x03E1
    12c0:	90 91 e2 03 	lds	r25, 0x03E2
    12c4:	90 93 40 06 	sts	0x0640, r25
    12c8:	80 93 3f 06 	sts	0x063F, r24
				SYS_Screen_Buffer.line[3] = Display_Strings[28];
    12cc:	80 91 01 04 	lds	r24, 0x0401
    12d0:	90 91 02 04 	lds	r25, 0x0402
    12d4:	90 93 42 06 	sts	0x0642, r25
    12d8:	80 93 41 06 	sts	0x0641, r24
				SYS_Screen_Buffer.menu = 0;
    12dc:	10 92 43 06 	sts	0x0643, r1
				SYS_Screen_Buffer.index = 1;
    12e0:	81 e0       	ldi	r24, 0x01	; 1
    12e2:	80 93 44 06 	sts	0x0644, r24
				SYS_Screen_Buffer.focus = 0;
    12e6:	10 92 45 06 	sts	0x0645, r1
				break;
    12ea:	08 95       	ret
			case MENU_STATE_SYS_P2:
				SYS_Screen_Buffer.line[0] = Display_Strings[10];
    12ec:	80 91 dd 03 	lds	r24, 0x03DD
    12f0:	90 91 de 03 	lds	r25, 0x03DE
    12f4:	90 93 3c 06 	sts	0x063C, r25
    12f8:	80 93 3b 06 	sts	0x063B, r24
				SYS_Screen_Buffer.line[1] = Display_Strings[11];
    12fc:	80 91 df 03 	lds	r24, 0x03DF
    1300:	90 91 e0 03 	lds	r25, 0x03E0
    1304:	90 93 3e 06 	sts	0x063E, r25
    1308:	80 93 3d 06 	sts	0x063D, r24
				SYS_Screen_Buffer.line[2] = Display_Strings[12];
    130c:	80 91 e1 03 	lds	r24, 0x03E1
    1310:	90 91 e2 03 	lds	r25, 0x03E2
    1314:	90 93 40 06 	sts	0x0640, r25
    1318:	80 93 3f 06 	sts	0x063F, r24
				SYS_Screen_Buffer.line[3] = Display_Strings[28];
    131c:	80 91 01 04 	lds	r24, 0x0401
    1320:	90 91 02 04 	lds	r25, 0x0402
    1324:	90 93 42 06 	sts	0x0642, r25
    1328:	80 93 41 06 	sts	0x0641, r24
				SYS_Screen_Buffer.menu = 0;
    132c:	10 92 43 06 	sts	0x0643, r1
				SYS_Screen_Buffer.index = 2;
    1330:	82 e0       	ldi	r24, 0x02	; 2
    1332:	80 93 44 06 	sts	0x0644, r24
				SYS_Screen_Buffer.focus = 0;
    1336:	10 92 45 06 	sts	0x0645, r1
				break;
    133a:	08 95       	ret
			case MENU_STATE_SYS_P3:
				SYS_Screen_Buffer.line[0] = Display_Strings[10];
    133c:	80 91 dd 03 	lds	r24, 0x03DD
    1340:	90 91 de 03 	lds	r25, 0x03DE
    1344:	90 93 3c 06 	sts	0x063C, r25
    1348:	80 93 3b 06 	sts	0x063B, r24
				SYS_Screen_Buffer.line[1] = Display_Strings[11];
    134c:	80 91 df 03 	lds	r24, 0x03DF
    1350:	90 91 e0 03 	lds	r25, 0x03E0
    1354:	90 93 3e 06 	sts	0x063E, r25
    1358:	80 93 3d 06 	sts	0x063D, r24
				SYS_Screen_Buffer.line[2] = Display_Strings[12];
    135c:	80 91 e1 03 	lds	r24, 0x03E1
    1360:	90 91 e2 03 	lds	r25, 0x03E2
    1364:	90 93 40 06 	sts	0x0640, r25
    1368:	80 93 3f 06 	sts	0x063F, r24
				SYS_Screen_Buffer.line[3] = Display_Strings[28];
    136c:	80 91 01 04 	lds	r24, 0x0401
    1370:	90 91 02 04 	lds	r25, 0x0402
    1374:	90 93 42 06 	sts	0x0642, r25
    1378:	80 93 41 06 	sts	0x0641, r24
				SYS_Screen_Buffer.menu = 0;
    137c:	10 92 43 06 	sts	0x0643, r1
				SYS_Screen_Buffer.index = 3;
    1380:	83 e0       	ldi	r24, 0x03	; 3
    1382:	80 93 44 06 	sts	0x0644, r24
				SYS_Screen_Buffer.focus = 0;
    1386:	10 92 45 06 	sts	0x0645, r1
				break;
    138a:	08 95       	ret
			case MENU_STATE_SYS_P4:
				SYS_Screen_Buffer.line[0] = Display_Strings[13];
    138c:	80 91 e3 03 	lds	r24, 0x03E3
    1390:	90 91 e4 03 	lds	r25, 0x03E4
    1394:	90 93 3c 06 	sts	0x063C, r25
    1398:	80 93 3b 06 	sts	0x063B, r24
				SYS_Screen_Buffer.line[1] = Display_Strings[14];
    139c:	80 91 e5 03 	lds	r24, 0x03E5
    13a0:	90 91 e6 03 	lds	r25, 0x03E6
    13a4:	90 93 3e 06 	sts	0x063E, r25
    13a8:	80 93 3d 06 	sts	0x063D, r24
				SYS_Screen_Buffer.line[2] = Display_Strings[15];
    13ac:	80 91 e7 03 	lds	r24, 0x03E7
    13b0:	90 91 e8 03 	lds	r25, 0x03E8
    13b4:	90 93 40 06 	sts	0x0640, r25
    13b8:	80 93 3f 06 	sts	0x063F, r24
				SYS_Screen_Buffer.line[3] = Display_Strings[28];
    13bc:	80 91 01 04 	lds	r24, 0x0401
    13c0:	90 91 02 04 	lds	r25, 0x0402
    13c4:	90 93 42 06 	sts	0x0642, r25
    13c8:	80 93 41 06 	sts	0x0641, r24
				SYS_Screen_Buffer.menu = 0;
    13cc:	10 92 43 06 	sts	0x0643, r1
				SYS_Screen_Buffer.index = 1;
    13d0:	81 e0       	ldi	r24, 0x01	; 1
    13d2:	80 93 44 06 	sts	0x0644, r24
				SYS_Screen_Buffer.focus = 0;
    13d6:	10 92 45 06 	sts	0x0645, r1
				break;
    13da:	08 95       	ret
			case MENU_STATE_SYS_P5:
				SYS_Screen_Buffer.line[0] = Display_Strings[13];
    13dc:	80 91 e3 03 	lds	r24, 0x03E3
    13e0:	90 91 e4 03 	lds	r25, 0x03E4
    13e4:	90 93 3c 06 	sts	0x063C, r25
    13e8:	80 93 3b 06 	sts	0x063B, r24
				SYS_Screen_Buffer.line[1] = Display_Strings[14];
    13ec:	80 91 e5 03 	lds	r24, 0x03E5
    13f0:	90 91 e6 03 	lds	r25, 0x03E6
    13f4:	90 93 3e 06 	sts	0x063E, r25
    13f8:	80 93 3d 06 	sts	0x063D, r24
				SYS_Screen_Buffer.line[2] = Display_Strings[15];
    13fc:	80 91 e7 03 	lds	r24, 0x03E7
    1400:	90 91 e8 03 	lds	r25, 0x03E8
    1404:	90 93 40 06 	sts	0x0640, r25
    1408:	80 93 3f 06 	sts	0x063F, r24
				SYS_Screen_Buffer.line[3] = Display_Strings[28];
    140c:	80 91 01 04 	lds	r24, 0x0401
    1410:	90 91 02 04 	lds	r25, 0x0402
    1414:	90 93 42 06 	sts	0x0642, r25
    1418:	80 93 41 06 	sts	0x0641, r24
				SYS_Screen_Buffer.menu = 0;
    141c:	10 92 43 06 	sts	0x0643, r1
				SYS_Screen_Buffer.index = 2;
    1420:	82 e0       	ldi	r24, 0x02	; 2
    1422:	80 93 44 06 	sts	0x0644, r24
				SYS_Screen_Buffer.focus = 0;
    1426:	10 92 45 06 	sts	0x0645, r1
				break;
    142a:	08 95       	ret
			case MENU_STATE_SYS_P6:
				SYS_Screen_Buffer.line[0] = Display_Strings[13];
    142c:	80 91 e3 03 	lds	r24, 0x03E3
    1430:	90 91 e4 03 	lds	r25, 0x03E4
    1434:	90 93 3c 06 	sts	0x063C, r25
    1438:	80 93 3b 06 	sts	0x063B, r24
				SYS_Screen_Buffer.line[1] = Display_Strings[14];
    143c:	80 91 e5 03 	lds	r24, 0x03E5
    1440:	90 91 e6 03 	lds	r25, 0x03E6
    1444:	90 93 3e 06 	sts	0x063E, r25
    1448:	80 93 3d 06 	sts	0x063D, r24
				SYS_Screen_Buffer.line[2] = Display_Strings[15];
    144c:	80 91 e7 03 	lds	r24, 0x03E7
    1450:	90 91 e8 03 	lds	r25, 0x03E8
    1454:	90 93 40 06 	sts	0x0640, r25
    1458:	80 93 3f 06 	sts	0x063F, r24
				SYS_Screen_Buffer.line[3] = Display_Strings[28];
    145c:	80 91 01 04 	lds	r24, 0x0401
    1460:	90 91 02 04 	lds	r25, 0x0402
    1464:	90 93 42 06 	sts	0x0642, r25
    1468:	80 93 41 06 	sts	0x0641, r24
				SYS_Screen_Buffer.menu = 0;
    146c:	10 92 43 06 	sts	0x0643, r1
				SYS_Screen_Buffer.index = 3;
    1470:	83 e0       	ldi	r24, 0x03	; 3
    1472:	80 93 44 06 	sts	0x0644, r24
				SYS_Screen_Buffer.focus = 0;
    1476:	10 92 45 06 	sts	0x0645, r1
				break;
    147a:	08 95       	ret
			case MENU_STATE_MODESEL_P1:
				SYS_Screen_Buffer.line[0] = Display_Strings[16];
    147c:	80 91 e9 03 	lds	r24, 0x03E9
    1480:	90 91 ea 03 	lds	r25, 0x03EA
    1484:	90 93 3c 06 	sts	0x063C, r25
    1488:	80 93 3b 06 	sts	0x063B, r24
				SYS_Screen_Buffer.line[1] = Display_Strings[17];
    148c:	80 91 eb 03 	lds	r24, 0x03EB
    1490:	90 91 ec 03 	lds	r25, 0x03EC
    1494:	90 93 3e 06 	sts	0x063E, r25
    1498:	80 93 3d 06 	sts	0x063D, r24
				SYS_Screen_Buffer.line[2] = Display_Strings[18];
    149c:	80 91 ed 03 	lds	r24, 0x03ED
    14a0:	90 91 ee 03 	lds	r25, 0x03EE
    14a4:	90 93 40 06 	sts	0x0640, r25
    14a8:	80 93 3f 06 	sts	0x063F, r24
				SYS_Screen_Buffer.line[3] = Display_Strings[28];
    14ac:	80 91 01 04 	lds	r24, 0x0401
    14b0:	90 91 02 04 	lds	r25, 0x0402
    14b4:	90 93 42 06 	sts	0x0642, r25
    14b8:	80 93 41 06 	sts	0x0641, r24
				SYS_Screen_Buffer.menu = 0;
    14bc:	10 92 43 06 	sts	0x0643, r1
				SYS_Screen_Buffer.index = 1;
    14c0:	81 e0       	ldi	r24, 0x01	; 1
    14c2:	80 93 44 06 	sts	0x0644, r24
				SYS_Screen_Buffer.focus = 0;
    14c6:	10 92 45 06 	sts	0x0645, r1
				break;
    14ca:	08 95       	ret
			case MENU_STATE_MODESEL_P2:
				SYS_Screen_Buffer.line[0] = Display_Strings[16];
    14cc:	80 91 e9 03 	lds	r24, 0x03E9
    14d0:	90 91 ea 03 	lds	r25, 0x03EA
    14d4:	90 93 3c 06 	sts	0x063C, r25
    14d8:	80 93 3b 06 	sts	0x063B, r24
				SYS_Screen_Buffer.line[1] = Display_Strings[17];
    14dc:	80 91 eb 03 	lds	r24, 0x03EB
    14e0:	90 91 ec 03 	lds	r25, 0x03EC
    14e4:	90 93 3e 06 	sts	0x063E, r25
    14e8:	80 93 3d 06 	sts	0x063D, r24
				SYS_Screen_Buffer.line[2] = Display_Strings[18];
    14ec:	80 91 ed 03 	lds	r24, 0x03ED
    14f0:	90 91 ee 03 	lds	r25, 0x03EE
    14f4:	90 93 40 06 	sts	0x0640, r25
    14f8:	80 93 3f 06 	sts	0x063F, r24
				SYS_Screen_Buffer.line[3] = Display_Strings[28];
    14fc:	80 91 01 04 	lds	r24, 0x0401
    1500:	90 91 02 04 	lds	r25, 0x0402
    1504:	90 93 42 06 	sts	0x0642, r25
    1508:	80 93 41 06 	sts	0x0641, r24
				SYS_Screen_Buffer.menu = 0;
    150c:	10 92 43 06 	sts	0x0643, r1
				SYS_Screen_Buffer.index = 2;
    1510:	82 e0       	ldi	r24, 0x02	; 2
    1512:	80 93 44 06 	sts	0x0644, r24
				SYS_Screen_Buffer.focus = 0;
    1516:	10 92 45 06 	sts	0x0645, r1
				break;
    151a:	08 95       	ret
			case MENU_STATE_MODESEL_P3:
				SYS_Screen_Buffer.line[0] = Display_Strings[16];
    151c:	80 91 e9 03 	lds	r24, 0x03E9
    1520:	90 91 ea 03 	lds	r25, 0x03EA
    1524:	90 93 3c 06 	sts	0x063C, r25
    1528:	80 93 3b 06 	sts	0x063B, r24
				SYS_Screen_Buffer.line[1] = Display_Strings[17];
    152c:	80 91 eb 03 	lds	r24, 0x03EB
    1530:	90 91 ec 03 	lds	r25, 0x03EC
    1534:	90 93 3e 06 	sts	0x063E, r25
    1538:	80 93 3d 06 	sts	0x063D, r24
				SYS_Screen_Buffer.line[2] = Display_Strings[18];
    153c:	80 91 ed 03 	lds	r24, 0x03ED
    1540:	90 91 ee 03 	lds	r25, 0x03EE
    1544:	90 93 40 06 	sts	0x0640, r25
    1548:	80 93 3f 06 	sts	0x063F, r24
				SYS_Screen_Buffer.line[3] = Display_Strings[28];
    154c:	80 91 01 04 	lds	r24, 0x0401
    1550:	90 91 02 04 	lds	r25, 0x0402
    1554:	90 93 42 06 	sts	0x0642, r25
    1558:	80 93 41 06 	sts	0x0641, r24
				SYS_Screen_Buffer.menu = 0;
    155c:	10 92 43 06 	sts	0x0643, r1
				SYS_Screen_Buffer.index = 3;
    1560:	83 e0       	ldi	r24, 0x03	; 3
    1562:	80 93 44 06 	sts	0x0644, r24
				SYS_Screen_Buffer.focus = 0;
    1566:	10 92 45 06 	sts	0x0645, r1
				break;
    156a:	08 95       	ret
			case MENU_STATE_MODESEL_P4:
				SYS_Screen_Buffer.line[0] = Display_Strings[19];
    156c:	80 91 ef 03 	lds	r24, 0x03EF
    1570:	90 91 f0 03 	lds	r25, 0x03F0
    1574:	90 93 3c 06 	sts	0x063C, r25
    1578:	80 93 3b 06 	sts	0x063B, r24
				SYS_Screen_Buffer.line[1] = Display_Strings[20];
    157c:	80 91 f1 03 	lds	r24, 0x03F1
    1580:	90 91 f2 03 	lds	r25, 0x03F2
    1584:	90 93 3e 06 	sts	0x063E, r25
    1588:	80 93 3d 06 	sts	0x063D, r24
				SYS_Screen_Buffer.line[2] = Display_Strings[0];
    158c:	80 91 c9 03 	lds	r24, 0x03C9
    1590:	90 91 ca 03 	lds	r25, 0x03CA
    1594:	90 93 40 06 	sts	0x0640, r25
    1598:	80 93 3f 06 	sts	0x063F, r24
				SYS_Screen_Buffer.line[3] = Display_Strings[28];
    159c:	80 91 01 04 	lds	r24, 0x0401
    15a0:	90 91 02 04 	lds	r25, 0x0402
    15a4:	90 93 42 06 	sts	0x0642, r25
    15a8:	80 93 41 06 	sts	0x0641, r24
				SYS_Screen_Buffer.menu = 0;
    15ac:	10 92 43 06 	sts	0x0643, r1
				SYS_Screen_Buffer.index = 1;
    15b0:	81 e0       	ldi	r24, 0x01	; 1
    15b2:	80 93 44 06 	sts	0x0644, r24
				SYS_Screen_Buffer.focus = 0;
    15b6:	10 92 45 06 	sts	0x0645, r1
				break;
    15ba:	08 95       	ret
			case MENU_STATE_MODESEL_P5:
				SYS_Screen_Buffer.line[0] = Display_Strings[19];
    15bc:	80 91 ef 03 	lds	r24, 0x03EF
    15c0:	90 91 f0 03 	lds	r25, 0x03F0
    15c4:	90 93 3c 06 	sts	0x063C, r25
    15c8:	80 93 3b 06 	sts	0x063B, r24
				SYS_Screen_Buffer.line[1] = Display_Strings[20];
    15cc:	80 91 f1 03 	lds	r24, 0x03F1
    15d0:	90 91 f2 03 	lds	r25, 0x03F2
    15d4:	90 93 3e 06 	sts	0x063E, r25
    15d8:	80 93 3d 06 	sts	0x063D, r24
				SYS_Screen_Buffer.line[2] = Display_Strings[0];
    15dc:	80 91 c9 03 	lds	r24, 0x03C9
    15e0:	90 91 ca 03 	lds	r25, 0x03CA
    15e4:	90 93 40 06 	sts	0x0640, r25
    15e8:	80 93 3f 06 	sts	0x063F, r24
				SYS_Screen_Buffer.line[3] = Display_Strings[28];
    15ec:	80 91 01 04 	lds	r24, 0x0401
    15f0:	90 91 02 04 	lds	r25, 0x0402
    15f4:	90 93 42 06 	sts	0x0642, r25
    15f8:	80 93 41 06 	sts	0x0641, r24
				SYS_Screen_Buffer.menu = 0;
    15fc:	10 92 43 06 	sts	0x0643, r1
				SYS_Screen_Buffer.index = 2;
    1600:	82 e0       	ldi	r24, 0x02	; 2
    1602:	80 93 44 06 	sts	0x0644, r24
				SYS_Screen_Buffer.focus = 0;
    1606:	10 92 45 06 	sts	0x0645, r1
				break;
    160a:	08 95       	ret
			case MENU_STATE_PD_MODE1_P1:
				if(PD_Mode == 1) 
    160c:	80 91 03 01 	lds	r24, 0x0103
    1610:	81 30       	cpi	r24, 0x01	; 1
    1612:	49 f4       	brne	.+18     	; 0x1626 <__stack+0x527>
					SYS_Screen_Buffer.line[0] = Display_Strings[21];
    1614:	80 91 f3 03 	lds	r24, 0x03F3
    1618:	90 91 f4 03 	lds	r25, 0x03F4
    161c:	90 93 3c 06 	sts	0x063C, r25
    1620:	80 93 3b 06 	sts	0x063B, r24
    1624:	08 c0       	rjmp	.+16     	; 0x1636 <__stack+0x537>
				else
					SYS_Screen_Buffer.line[0] = Display_Strings[22];
    1626:	80 91 f5 03 	lds	r24, 0x03F5
    162a:	90 91 f6 03 	lds	r25, 0x03F6
    162e:	90 93 3c 06 	sts	0x063C, r25
    1632:	80 93 3b 06 	sts	0x063B, r24
				SYS_Screen_Buffer.line[1] = Display_Strings[23];
    1636:	80 91 f7 03 	lds	r24, 0x03F7
    163a:	90 91 f8 03 	lds	r25, 0x03F8
    163e:	90 93 3e 06 	sts	0x063E, r25
    1642:	80 93 3d 06 	sts	0x063D, r24
				SYS_Screen_Buffer.line[2] = Display_Strings[24];
    1646:	80 91 f9 03 	lds	r24, 0x03F9
    164a:	90 91 fa 03 	lds	r25, 0x03FA
    164e:	90 93 40 06 	sts	0x0640, r25
    1652:	80 93 3f 06 	sts	0x063F, r24
				SYS_Screen_Buffer.line[3] = Display_Strings[28];
    1656:	80 91 01 04 	lds	r24, 0x0401
    165a:	90 91 02 04 	lds	r25, 0x0402
    165e:	90 93 42 06 	sts	0x0642, r25
    1662:	80 93 41 06 	sts	0x0641, r24
				SYS_Screen_Buffer.menu = 0;
    1666:	10 92 43 06 	sts	0x0643, r1
				SYS_Screen_Buffer.index = 1;
    166a:	81 e0       	ldi	r24, 0x01	; 1
    166c:	80 93 44 06 	sts	0x0644, r24
				SYS_Screen_Buffer.focus = 0;
    1670:	10 92 45 06 	sts	0x0645, r1
				break;
    1674:	08 95       	ret
			case MENU_STATE_PD_MODE1_P2:
				if(PD_Mode == 1)
    1676:	80 91 03 01 	lds	r24, 0x0103
    167a:	81 30       	cpi	r24, 0x01	; 1
    167c:	49 f4       	brne	.+18     	; 0x1690 <__stack+0x591>
				SYS_Screen_Buffer.line[0] = Display_Strings[21];
    167e:	80 91 f3 03 	lds	r24, 0x03F3
    1682:	90 91 f4 03 	lds	r25, 0x03F4
    1686:	90 93 3c 06 	sts	0x063C, r25
    168a:	80 93 3b 06 	sts	0x063B, r24
    168e:	08 c0       	rjmp	.+16     	; 0x16a0 <__stack+0x5a1>
				else
				SYS_Screen_Buffer.line[0] = Display_Strings[22];
    1690:	80 91 f5 03 	lds	r24, 0x03F5
    1694:	90 91 f6 03 	lds	r25, 0x03F6
    1698:	90 93 3c 06 	sts	0x063C, r25
    169c:	80 93 3b 06 	sts	0x063B, r24
				SYS_Screen_Buffer.line[1] = Display_Strings[23];
    16a0:	80 91 f7 03 	lds	r24, 0x03F7
    16a4:	90 91 f8 03 	lds	r25, 0x03F8
    16a8:	90 93 3e 06 	sts	0x063E, r25
    16ac:	80 93 3d 06 	sts	0x063D, r24
				SYS_Screen_Buffer.line[2] = Display_Strings[24];
    16b0:	80 91 f9 03 	lds	r24, 0x03F9
    16b4:	90 91 fa 03 	lds	r25, 0x03FA
    16b8:	90 93 40 06 	sts	0x0640, r25
    16bc:	80 93 3f 06 	sts	0x063F, r24
				SYS_Screen_Buffer.line[3] = Display_Strings[28];
    16c0:	80 91 01 04 	lds	r24, 0x0401
    16c4:	90 91 02 04 	lds	r25, 0x0402
    16c8:	90 93 42 06 	sts	0x0642, r25
    16cc:	80 93 41 06 	sts	0x0641, r24
				SYS_Screen_Buffer.menu = 0;
    16d0:	10 92 43 06 	sts	0x0643, r1
				SYS_Screen_Buffer.index = 2;
    16d4:	82 e0       	ldi	r24, 0x02	; 2
    16d6:	80 93 44 06 	sts	0x0644, r24
				SYS_Screen_Buffer.focus = 0;
    16da:	10 92 45 06 	sts	0x0645, r1
				break;
    16de:	08 95       	ret
			case MENU_STATE_PD_MODE1_P3:
				if(PD_Mode == 1)
    16e0:	80 91 03 01 	lds	r24, 0x0103
    16e4:	81 30       	cpi	r24, 0x01	; 1
    16e6:	49 f4       	brne	.+18     	; 0x16fa <__stack+0x5fb>
				SYS_Screen_Buffer.line[0] = Display_Strings[21];
    16e8:	80 91 f3 03 	lds	r24, 0x03F3
    16ec:	90 91 f4 03 	lds	r25, 0x03F4
    16f0:	90 93 3c 06 	sts	0x063C, r25
    16f4:	80 93 3b 06 	sts	0x063B, r24
    16f8:	08 c0       	rjmp	.+16     	; 0x170a <__stack+0x60b>
				else
				SYS_Screen_Buffer.line[0] = Display_Strings[22];
    16fa:	80 91 f5 03 	lds	r24, 0x03F5
    16fe:	90 91 f6 03 	lds	r25, 0x03F6
    1702:	90 93 3c 06 	sts	0x063C, r25
    1706:	80 93 3b 06 	sts	0x063B, r24
				SYS_Screen_Buffer.line[1] = Display_Strings[23];
    170a:	80 91 f7 03 	lds	r24, 0x03F7
    170e:	90 91 f8 03 	lds	r25, 0x03F8
    1712:	90 93 3e 06 	sts	0x063E, r25
    1716:	80 93 3d 06 	sts	0x063D, r24
				SYS_Screen_Buffer.line[2] = Display_Strings[24];
    171a:	80 91 f9 03 	lds	r24, 0x03F9
    171e:	90 91 fa 03 	lds	r25, 0x03FA
    1722:	90 93 40 06 	sts	0x0640, r25
    1726:	80 93 3f 06 	sts	0x063F, r24
				SYS_Screen_Buffer.line[3] = Display_Strings[28];
    172a:	80 91 01 04 	lds	r24, 0x0401
    172e:	90 91 02 04 	lds	r25, 0x0402
    1732:	90 93 42 06 	sts	0x0642, r25
    1736:	80 93 41 06 	sts	0x0641, r24
				SYS_Screen_Buffer.menu = 0;
    173a:	10 92 43 06 	sts	0x0643, r1
				SYS_Screen_Buffer.index = 3;
    173e:	83 e0       	ldi	r24, 0x03	; 3
    1740:	80 93 44 06 	sts	0x0644, r24
				SYS_Screen_Buffer.focus = 0;
    1744:	10 92 45 06 	sts	0x0645, r1
				break;
    1748:	08 95       	ret
			case MENU_STATE_PD_MODE1_P4:
				if(PD_Unit == UNIT_PA)
    174a:	80 91 0c 01 	lds	r24, 0x010C
    174e:	82 30       	cpi	r24, 0x02	; 2
    1750:	49 f4       	brne	.+18     	; 0x1764 <__stack+0x665>
				SYS_Screen_Buffer.line[0] = Display_Strings[29];
    1752:	80 91 03 04 	lds	r24, 0x0403
    1756:	90 91 04 04 	lds	r25, 0x0404
    175a:	90 93 3c 06 	sts	0x063C, r25
    175e:	80 93 3b 06 	sts	0x063B, r24
    1762:	0a c0       	rjmp	.+20     	; 0x1778 <__stack+0x679>
				else if(PD_Unit == UNIT_MMH2O)
    1764:	81 30       	cpi	r24, 0x01	; 1
    1766:	41 f4       	brne	.+16     	; 0x1778 <__stack+0x679>
				SYS_Screen_Buffer.line[0] = Display_Strings[30];
    1768:	80 91 05 04 	lds	r24, 0x0405
    176c:	90 91 06 04 	lds	r25, 0x0406
    1770:	90 93 3c 06 	sts	0x063C, r25
    1774:	80 93 3b 06 	sts	0x063B, r24
				SYS_Screen_Buffer.line[1] = Display_Strings[0];
    1778:	80 91 c9 03 	lds	r24, 0x03C9
    177c:	90 91 ca 03 	lds	r25, 0x03CA
    1780:	90 93 3e 06 	sts	0x063E, r25
    1784:	80 93 3d 06 	sts	0x063D, r24
				SYS_Screen_Buffer.line[2] = Display_Strings[0];
    1788:	90 93 40 06 	sts	0x0640, r25
    178c:	80 93 3f 06 	sts	0x063F, r24
				SYS_Screen_Buffer.menu = 0;
    1790:	10 92 43 06 	sts	0x0643, r1
				SYS_Screen_Buffer.index = 1;
    1794:	81 e0       	ldi	r24, 0x01	; 1
    1796:	80 93 44 06 	sts	0x0644, r24
				SYS_Screen_Buffer.focus = 0;
    179a:	10 92 45 06 	sts	0x0645, r1
				break;
    179e:	08 95       	ret
			case MENU_STATE_PD_M1ADJ_UP1:
				if(PD_Mode ==1)
    17a0:	80 91 03 01 	lds	r24, 0x0103
    17a4:	81 30       	cpi	r24, 0x01	; 1
    17a6:	49 f4       	brne	.+18     	; 0x17ba <__stack+0x6bb>
				SYS_Screen_Buffer.line[0] = Display_Strings[21];
    17a8:	80 91 f3 03 	lds	r24, 0x03F3
    17ac:	90 91 f4 03 	lds	r25, 0x03F4
    17b0:	90 93 3c 06 	sts	0x063C, r25
    17b4:	80 93 3b 06 	sts	0x063B, r24
    17b8:	08 c0       	rjmp	.+16     	; 0x17ca <__stack+0x6cb>
				else
				SYS_Screen_Buffer.line[0] = Display_Strings[22];
    17ba:	80 91 f5 03 	lds	r24, 0x03F5
    17be:	90 91 f6 03 	lds	r25, 0x03F6
    17c2:	90 93 3c 06 	sts	0x063C, r25
    17c6:	80 93 3b 06 	sts	0x063B, r24
				SYS_Screen_Buffer.line[1] = Display_Strings[23];
    17ca:	80 91 f7 03 	lds	r24, 0x03F7
    17ce:	90 91 f8 03 	lds	r25, 0x03F8
    17d2:	90 93 3e 06 	sts	0x063E, r25
    17d6:	80 93 3d 06 	sts	0x063D, r24
				SYS_Screen_Buffer.line[2] = Display_Strings[24];
    17da:	80 91 f9 03 	lds	r24, 0x03F9
    17de:	90 91 fa 03 	lds	r25, 0x03FA
    17e2:	90 93 40 06 	sts	0x0640, r25
    17e6:	80 93 3f 06 	sts	0x063F, r24
				SYS_Screen_Buffer.line[3] = Display_Strings[28];
    17ea:	80 91 01 04 	lds	r24, 0x0401
    17ee:	90 91 02 04 	lds	r25, 0x0402
    17f2:	90 93 42 06 	sts	0x0642, r25
    17f6:	80 93 41 06 	sts	0x0641, r24
				SYS_Screen_Buffer.menu = 0;
    17fa:	10 92 43 06 	sts	0x0643, r1
				SYS_Screen_Buffer.index = 2;
    17fe:	82 e0       	ldi	r24, 0x02	; 2
    1800:	80 93 44 06 	sts	0x0644, r24
				SYS_Screen_Buffer.focus = 1;
    1804:	81 e0       	ldi	r24, 0x01	; 1
    1806:	80 93 45 06 	sts	0x0645, r24
				break;
    180a:	08 95       	ret
			case MENU_STATE_PD_M1ADJ_UP2: 
				if(PD_Mode ==1)
    180c:	80 91 03 01 	lds	r24, 0x0103
    1810:	81 30       	cpi	r24, 0x01	; 1
    1812:	49 f4       	brne	.+18     	; 0x1826 <__stack+0x727>
				SYS_Screen_Buffer.line[0] = Display_Strings[21];
    1814:	80 91 f3 03 	lds	r24, 0x03F3
    1818:	90 91 f4 03 	lds	r25, 0x03F4
    181c:	90 93 3c 06 	sts	0x063C, r25
    1820:	80 93 3b 06 	sts	0x063B, r24
    1824:	08 c0       	rjmp	.+16     	; 0x1836 <__stack+0x737>
				else
				SYS_Screen_Buffer.line[0] = Display_Strings[22];
    1826:	80 91 f5 03 	lds	r24, 0x03F5
    182a:	90 91 f6 03 	lds	r25, 0x03F6
    182e:	90 93 3c 06 	sts	0x063C, r25
    1832:	80 93 3b 06 	sts	0x063B, r24
				SYS_Screen_Buffer.line[1] = Display_Strings[23];
    1836:	80 91 f7 03 	lds	r24, 0x03F7
    183a:	90 91 f8 03 	lds	r25, 0x03F8
    183e:	90 93 3e 06 	sts	0x063E, r25
    1842:	80 93 3d 06 	sts	0x063D, r24
				SYS_Screen_Buffer.line[2] = Display_Strings[24];
    1846:	80 91 f9 03 	lds	r24, 0x03F9
    184a:	90 91 fa 03 	lds	r25, 0x03FA
    184e:	90 93 40 06 	sts	0x0640, r25
    1852:	80 93 3f 06 	sts	0x063F, r24
				SYS_Screen_Buffer.line[3] = Display_Strings[28];
    1856:	80 91 01 04 	lds	r24, 0x0401
    185a:	90 91 02 04 	lds	r25, 0x0402
    185e:	90 93 42 06 	sts	0x0642, r25
    1862:	80 93 41 06 	sts	0x0641, r24
				SYS_Screen_Buffer.menu = 0;
    1866:	10 92 43 06 	sts	0x0643, r1
				SYS_Screen_Buffer.index = 2;
    186a:	82 e0       	ldi	r24, 0x02	; 2
    186c:	80 93 44 06 	sts	0x0644, r24
				SYS_Screen_Buffer.focus = 2;
    1870:	80 93 45 06 	sts	0x0645, r24
				break;
    1874:	08 95       	ret
			case MENU_STATE_PD_M1ADJ_UP3:
				if(PD_Mode ==1)
    1876:	80 91 03 01 	lds	r24, 0x0103
    187a:	81 30       	cpi	r24, 0x01	; 1
    187c:	49 f4       	brne	.+18     	; 0x1890 <__stack+0x791>
				SYS_Screen_Buffer.line[0] = Display_Strings[21];
    187e:	80 91 f3 03 	lds	r24, 0x03F3
    1882:	90 91 f4 03 	lds	r25, 0x03F4
    1886:	90 93 3c 06 	sts	0x063C, r25
    188a:	80 93 3b 06 	sts	0x063B, r24
    188e:	08 c0       	rjmp	.+16     	; 0x18a0 <__stack+0x7a1>
				else
				SYS_Screen_Buffer.line[0] = Display_Strings[22];
    1890:	80 91 f5 03 	lds	r24, 0x03F5
    1894:	90 91 f6 03 	lds	r25, 0x03F6
    1898:	90 93 3c 06 	sts	0x063C, r25
    189c:	80 93 3b 06 	sts	0x063B, r24
				SYS_Screen_Buffer.line[1] = Display_Strings[23];
    18a0:	80 91 f7 03 	lds	r24, 0x03F7
    18a4:	90 91 f8 03 	lds	r25, 0x03F8
    18a8:	90 93 3e 06 	sts	0x063E, r25
    18ac:	80 93 3d 06 	sts	0x063D, r24
				SYS_Screen_Buffer.line[2] = Display_Strings[24];
    18b0:	80 91 f9 03 	lds	r24, 0x03F9
    18b4:	90 91 fa 03 	lds	r25, 0x03FA
    18b8:	90 93 40 06 	sts	0x0640, r25
    18bc:	80 93 3f 06 	sts	0x063F, r24
				SYS_Screen_Buffer.line[3] = Display_Strings[28];
    18c0:	80 91 01 04 	lds	r24, 0x0401
    18c4:	90 91 02 04 	lds	r25, 0x0402
    18c8:	90 93 42 06 	sts	0x0642, r25
    18cc:	80 93 41 06 	sts	0x0641, r24
				SYS_Screen_Buffer.menu = 0;
    18d0:	10 92 43 06 	sts	0x0643, r1
				SYS_Screen_Buffer.index = 2;
    18d4:	82 e0       	ldi	r24, 0x02	; 2
    18d6:	80 93 44 06 	sts	0x0644, r24
				SYS_Screen_Buffer.focus = 3;
    18da:	83 e0       	ldi	r24, 0x03	; 3
    18dc:	80 93 45 06 	sts	0x0645, r24
				break;
    18e0:	08 95       	ret
			case MENU_STATE_PD_M1ADJ_DN1:
				if(PD_Mode ==1)
    18e2:	80 91 03 01 	lds	r24, 0x0103
    18e6:	81 30       	cpi	r24, 0x01	; 1
    18e8:	49 f4       	brne	.+18     	; 0x18fc <__stack+0x7fd>
				SYS_Screen_Buffer.line[0] = Display_Strings[21];
    18ea:	80 91 f3 03 	lds	r24, 0x03F3
    18ee:	90 91 f4 03 	lds	r25, 0x03F4
    18f2:	90 93 3c 06 	sts	0x063C, r25
    18f6:	80 93 3b 06 	sts	0x063B, r24
    18fa:	08 c0       	rjmp	.+16     	; 0x190c <__stack+0x80d>
				else
				SYS_Screen_Buffer.line[0] = Display_Strings[22];
    18fc:	80 91 f5 03 	lds	r24, 0x03F5
    1900:	90 91 f6 03 	lds	r25, 0x03F6
    1904:	90 93 3c 06 	sts	0x063C, r25
    1908:	80 93 3b 06 	sts	0x063B, r24
				SYS_Screen_Buffer.line[1] = Display_Strings[23];
    190c:	80 91 f7 03 	lds	r24, 0x03F7
    1910:	90 91 f8 03 	lds	r25, 0x03F8
    1914:	90 93 3e 06 	sts	0x063E, r25
    1918:	80 93 3d 06 	sts	0x063D, r24
				SYS_Screen_Buffer.line[2] = Display_Strings[24];
    191c:	80 91 f9 03 	lds	r24, 0x03F9
    1920:	90 91 fa 03 	lds	r25, 0x03FA
    1924:	90 93 40 06 	sts	0x0640, r25
    1928:	80 93 3f 06 	sts	0x063F, r24
				SYS_Screen_Buffer.line[3] = Display_Strings[28];
    192c:	80 91 01 04 	lds	r24, 0x0401
    1930:	90 91 02 04 	lds	r25, 0x0402
    1934:	90 93 42 06 	sts	0x0642, r25
    1938:	80 93 41 06 	sts	0x0641, r24
				SYS_Screen_Buffer.menu = 0;
    193c:	10 92 43 06 	sts	0x0643, r1
				SYS_Screen_Buffer.index = 3;
    1940:	83 e0       	ldi	r24, 0x03	; 3
    1942:	80 93 44 06 	sts	0x0644, r24
				SYS_Screen_Buffer.focus = 4;
    1946:	84 e0       	ldi	r24, 0x04	; 4
    1948:	80 93 45 06 	sts	0x0645, r24
				break;
    194c:	08 95       	ret
			case MENU_STATE_PD_M1ADJ_DN2:
				if(PD_Mode ==1)
    194e:	80 91 03 01 	lds	r24, 0x0103
    1952:	81 30       	cpi	r24, 0x01	; 1
    1954:	49 f4       	brne	.+18     	; 0x1968 <__stack+0x869>
				SYS_Screen_Buffer.line[0] = Display_Strings[21];
    1956:	80 91 f3 03 	lds	r24, 0x03F3
    195a:	90 91 f4 03 	lds	r25, 0x03F4
    195e:	90 93 3c 06 	sts	0x063C, r25
    1962:	80 93 3b 06 	sts	0x063B, r24
    1966:	08 c0       	rjmp	.+16     	; 0x1978 <__stack+0x879>
				else
				SYS_Screen_Buffer.line[0] = Display_Strings[22];
    1968:	80 91 f5 03 	lds	r24, 0x03F5
    196c:	90 91 f6 03 	lds	r25, 0x03F6
    1970:	90 93 3c 06 	sts	0x063C, r25
    1974:	80 93 3b 06 	sts	0x063B, r24
				SYS_Screen_Buffer.line[1] = Display_Strings[23];
    1978:	80 91 f7 03 	lds	r24, 0x03F7
    197c:	90 91 f8 03 	lds	r25, 0x03F8
    1980:	90 93 3e 06 	sts	0x063E, r25
    1984:	80 93 3d 06 	sts	0x063D, r24
				SYS_Screen_Buffer.line[2] = Display_Strings[24];
    1988:	80 91 f9 03 	lds	r24, 0x03F9
    198c:	90 91 fa 03 	lds	r25, 0x03FA
    1990:	90 93 40 06 	sts	0x0640, r25
    1994:	80 93 3f 06 	sts	0x063F, r24
				SYS_Screen_Buffer.line[3] = Display_Strings[28];
    1998:	80 91 01 04 	lds	r24, 0x0401
    199c:	90 91 02 04 	lds	r25, 0x0402
    19a0:	90 93 42 06 	sts	0x0642, r25
    19a4:	80 93 41 06 	sts	0x0641, r24
				SYS_Screen_Buffer.menu = 0;
    19a8:	10 92 43 06 	sts	0x0643, r1
				SYS_Screen_Buffer.index = 3;
    19ac:	83 e0       	ldi	r24, 0x03	; 3
    19ae:	80 93 44 06 	sts	0x0644, r24
				SYS_Screen_Buffer.focus = 5;
    19b2:	85 e0       	ldi	r24, 0x05	; 5
    19b4:	80 93 45 06 	sts	0x0645, r24
				break;
    19b8:	08 95       	ret
			case MENU_STATE_PD_M1ADJ_DN3:
				if(PD_Mode ==1)
    19ba:	80 91 03 01 	lds	r24, 0x0103
    19be:	81 30       	cpi	r24, 0x01	; 1
    19c0:	49 f4       	brne	.+18     	; 0x19d4 <__stack+0x8d5>
				SYS_Screen_Buffer.line[0] = Display_Strings[21];
    19c2:	80 91 f3 03 	lds	r24, 0x03F3
    19c6:	90 91 f4 03 	lds	r25, 0x03F4
    19ca:	90 93 3c 06 	sts	0x063C, r25
    19ce:	80 93 3b 06 	sts	0x063B, r24
    19d2:	08 c0       	rjmp	.+16     	; 0x19e4 <__stack+0x8e5>
				else
				SYS_Screen_Buffer.line[0] = Display_Strings[22];
    19d4:	80 91 f5 03 	lds	r24, 0x03F5
    19d8:	90 91 f6 03 	lds	r25, 0x03F6
    19dc:	90 93 3c 06 	sts	0x063C, r25
    19e0:	80 93 3b 06 	sts	0x063B, r24
				SYS_Screen_Buffer.line[1] = Display_Strings[23];
    19e4:	80 91 f7 03 	lds	r24, 0x03F7
    19e8:	90 91 f8 03 	lds	r25, 0x03F8
    19ec:	90 93 3e 06 	sts	0x063E, r25
    19f0:	80 93 3d 06 	sts	0x063D, r24
				SYS_Screen_Buffer.line[2] = Display_Strings[24];
    19f4:	80 91 f9 03 	lds	r24, 0x03F9
    19f8:	90 91 fa 03 	lds	r25, 0x03FA
    19fc:	90 93 40 06 	sts	0x0640, r25
    1a00:	80 93 3f 06 	sts	0x063F, r24
				SYS_Screen_Buffer.line[3] = Display_Strings[28];
    1a04:	80 91 01 04 	lds	r24, 0x0401
    1a08:	90 91 02 04 	lds	r25, 0x0402
    1a0c:	90 93 42 06 	sts	0x0642, r25
    1a10:	80 93 41 06 	sts	0x0641, r24
				SYS_Screen_Buffer.menu = 0;
    1a14:	10 92 43 06 	sts	0x0643, r1
				SYS_Screen_Buffer.index = 3;
    1a18:	83 e0       	ldi	r24, 0x03	; 3
    1a1a:	80 93 44 06 	sts	0x0644, r24
				SYS_Screen_Buffer.focus = 6;
    1a1e:	86 e0       	ldi	r24, 0x06	; 6
    1a20:	80 93 45 06 	sts	0x0645, r24
				break;
    1a24:	08 95       	ret
			
			default:
				SYS_Screen_Buffer.line[0] = Display_Strings[31];
    1a26:	80 91 07 04 	lds	r24, 0x0407
    1a2a:	90 91 08 04 	lds	r25, 0x0408
    1a2e:	90 93 3c 06 	sts	0x063C, r25
    1a32:	80 93 3b 06 	sts	0x063B, r24
				SYS_Screen_Buffer.line[1] = Display_Strings[0];
    1a36:	80 91 c9 03 	lds	r24, 0x03C9
    1a3a:	90 91 ca 03 	lds	r25, 0x03CA
    1a3e:	90 93 3e 06 	sts	0x063E, r25
    1a42:	80 93 3d 06 	sts	0x063D, r24
				SYS_Screen_Buffer.line[2] = Display_Strings[0];
    1a46:	90 93 40 06 	sts	0x0640, r25
    1a4a:	80 93 3f 06 	sts	0x063F, r24
				SYS_Screen_Buffer.focus = 0;
    1a4e:	10 92 45 06 	sts	0x0645, r1
    1a52:	08 95       	ret

00001a54 <Menu_Init>:
		return NULL;
		
	}
	
	void Menu_Init(void){
		SYS_State = FindState(MENU_STATE_MAIN);
    1a54:	80 e0       	ldi	r24, 0x00	; 0
    1a56:	90 e0       	ldi	r25, 0x00	; 0
    1a58:	73 da       	rcall	.-2842   	; 0xf40 <FindState>
    1a5a:	90 93 35 06 	sts	0x0635, r25
    1a5e:	80 93 34 06 	sts	0x0634, r24
		lcd12864_clrGDRAM();
    1a62:	15 d4       	rcall	.+2090   	; 0x228e <lcd12864_clrGDRAM>
		Current_TimerFunc = SYS_State->Timer_Action;
    1a64:	e0 91 34 06 	lds	r30, 0x0634
    1a68:	f0 91 35 06 	lds	r31, 0x0635
    1a6c:	06 88       	ldd	r0, Z+22	; 0x16
    1a6e:	f7 89       	ldd	r31, Z+23	; 0x17
    1a70:	e0 2d       	mov	r30, r0
    1a72:	f0 93 33 06 	sts	0x0633, r31
    1a76:	e0 93 32 06 	sts	0x0632, r30
		Current_TimerFunc();
    1a7a:	09 95       	icall
		Timer0_RegisterCallbackFunction(SYS_State->Timer_Action,1000);
    1a7c:	e0 91 34 06 	lds	r30, 0x0634
    1a80:	f0 91 35 06 	lds	r31, 0x0635
    1a84:	68 ee       	ldi	r22, 0xE8	; 232
    1a86:	73 e0       	ldi	r23, 0x03	; 3
    1a88:	86 89       	ldd	r24, Z+22	; 0x16
    1a8a:	97 89       	ldd	r25, Z+23	; 0x17
    1a8c:	55 d1       	rcall	.+682    	; 0x1d38 <Timer0_RegisterCallbackFunction>
		State_Update();
    1a8e:	84 da       	rcall	.-2808   	; 0xf98 <State_Update>
		DrawScreen();
    1a90:	24 da       	rcall	.-3000   	; 0xeda <DrawScreen>

		lcd12864_Focus(0,0,0);
    1a92:	40 e0       	ldi	r20, 0x00	; 0
    1a94:	60 e0       	ldi	r22, 0x00	; 0
    1a96:	80 e0       	ldi	r24, 0x00	; 0
    1a98:	67 c4       	rjmp	.+2254   	; 0x2368 <lcd12864_Focus>
    1a9a:	08 95       	ret

00001a9c <Menu_Poll>:
		}
			
	}
	
void Menu_Poll(void){
		uint8_t key = getkey();
    1a9c:	5d d2       	rcall	.+1210   	; 0x1f58 <getkey>
		switch(key){
    1a9e:	82 30       	cpi	r24, 0x02	; 2
    1aa0:	71 f0       	breq	.+28     	; 0x1abe <Menu_Poll+0x22>
    1aa2:	38 f4       	brcc	.+14     	; 0x1ab2 <Menu_Poll+0x16>
    1aa4:	88 23       	and	r24, r24
    1aa6:	09 f4       	brne	.+2      	; 0x1aaa <Menu_Poll+0xe>
    1aa8:	3a c0       	rjmp	.+116    	; 0x1b1e <Menu_Poll+0x82>
    1aaa:	81 30       	cpi	r24, 0x01	; 1
    1aac:	09 f4       	brne	.+2      	; 0x1ab0 <Menu_Poll+0x14>
    1aae:	4f c0       	rjmp	.+158    	; 0x1b4e <Menu_Poll+0xb2>
    1ab0:	7e c0       	rjmp	.+252    	; 0x1bae <Menu_Poll+0x112>
    1ab2:	83 30       	cpi	r24, 0x03	; 3
    1ab4:	e1 f0       	breq	.+56     	; 0x1aee <Menu_Poll+0x52>
    1ab6:	84 30       	cpi	r24, 0x04	; 4
    1ab8:	09 f4       	brne	.+2      	; 0x1abc <Menu_Poll+0x20>
    1aba:	61 c0       	rjmp	.+194    	; 0x1b7e <Menu_Poll+0xe2>
    1abc:	78 c0       	rjmp	.+240    	; 0x1bae <Menu_Poll+0x112>
			case BUTTON_RIGHT:
				if(SYS_State->Right_Action!=NULL)
    1abe:	e0 91 34 06 	lds	r30, 0x0634
    1ac2:	f0 91 35 06 	lds	r31, 0x0635
    1ac6:	02 88       	ldd	r0, Z+18	; 0x12
    1ac8:	f3 89       	ldd	r31, Z+19	; 0x13
    1aca:	e0 2d       	mov	r30, r0
    1acc:	30 97       	sbiw	r30, 0x00	; 0
    1ace:	09 f0       	breq	.+2      	; 0x1ad2 <Menu_Poll+0x36>
					SYS_State->Right_Action();
    1ad0:	09 95       	icall
				SYS_State = FindState(SYS_State->Right_Next_State);
    1ad2:	e0 91 34 06 	lds	r30, 0x0634
    1ad6:	f0 91 35 06 	lds	r31, 0x0635
    1ada:	80 85       	ldd	r24, Z+8	; 0x08
    1adc:	91 85       	ldd	r25, Z+9	; 0x09
    1ade:	30 da       	rcall	.-2976   	; 0xf40 <FindState>
    1ae0:	90 93 35 06 	sts	0x0635, r25
    1ae4:	80 93 34 06 	sts	0x0634, r24
				State_Update();
    1ae8:	57 da       	rcall	.-2898   	; 0xf98 <State_Update>
				DrawScreen();
    1aea:	f7 d9       	rcall	.-3090   	; 0xeda <DrawScreen>
				break;
    1aec:	62 c0       	rjmp	.+196    	; 0x1bb2 <Menu_Poll+0x116>
			case BUTTON_LEFT:
				if(SYS_State->Left_Action!= NULL)
    1aee:	e0 91 34 06 	lds	r30, 0x0634
    1af2:	f0 91 35 06 	lds	r31, 0x0635
    1af6:	00 88       	ldd	r0, Z+16	; 0x10
    1af8:	f1 89       	ldd	r31, Z+17	; 0x11
    1afa:	e0 2d       	mov	r30, r0
    1afc:	30 97       	sbiw	r30, 0x00	; 0
    1afe:	09 f0       	breq	.+2      	; 0x1b02 <Menu_Poll+0x66>
					SYS_State->Left_Action();
    1b00:	09 95       	icall
				SYS_State = FindState(SYS_State->Left_Next_State);
    1b02:	e0 91 34 06 	lds	r30, 0x0634
    1b06:	f0 91 35 06 	lds	r31, 0x0635
    1b0a:	86 81       	ldd	r24, Z+6	; 0x06
    1b0c:	97 81       	ldd	r25, Z+7	; 0x07
    1b0e:	18 da       	rcall	.-3024   	; 0xf40 <FindState>
    1b10:	90 93 35 06 	sts	0x0635, r25
    1b14:	80 93 34 06 	sts	0x0634, r24
				State_Update();
    1b18:	3f da       	rcall	.-2946   	; 0xf98 <State_Update>
				DrawScreen();
    1b1a:	df d9       	rcall	.-3138   	; 0xeda <DrawScreen>
				break;
    1b1c:	4a c0       	rjmp	.+148    	; 0x1bb2 <Menu_Poll+0x116>
			case BUTTON_UP:
				if(SYS_State->Up_Action!= NULL)
    1b1e:	e0 91 34 06 	lds	r30, 0x0634
    1b22:	f0 91 35 06 	lds	r31, 0x0635
    1b26:	04 84       	ldd	r0, Z+12	; 0x0c
    1b28:	f5 85       	ldd	r31, Z+13	; 0x0d
    1b2a:	e0 2d       	mov	r30, r0
    1b2c:	30 97       	sbiw	r30, 0x00	; 0
    1b2e:	09 f0       	breq	.+2      	; 0x1b32 <Menu_Poll+0x96>
				SYS_State->Up_Action();
    1b30:	09 95       	icall
				SYS_State = FindState(SYS_State->Up_Next_State);
    1b32:	e0 91 34 06 	lds	r30, 0x0634
    1b36:	f0 91 35 06 	lds	r31, 0x0635
    1b3a:	82 81       	ldd	r24, Z+2	; 0x02
    1b3c:	93 81       	ldd	r25, Z+3	; 0x03
    1b3e:	00 da       	rcall	.-3072   	; 0xf40 <FindState>
    1b40:	90 93 35 06 	sts	0x0635, r25
    1b44:	80 93 34 06 	sts	0x0634, r24
				State_Update();
    1b48:	27 da       	rcall	.-2994   	; 0xf98 <State_Update>
				DrawScreen();
    1b4a:	c7 d9       	rcall	.-3186   	; 0xeda <DrawScreen>
				break;
    1b4c:	32 c0       	rjmp	.+100    	; 0x1bb2 <Menu_Poll+0x116>
			case BUTTON_DOWN:
				if(SYS_State->Down_Action!= NULL)
    1b4e:	e0 91 34 06 	lds	r30, 0x0634
    1b52:	f0 91 35 06 	lds	r31, 0x0635
    1b56:	06 84       	ldd	r0, Z+14	; 0x0e
    1b58:	f7 85       	ldd	r31, Z+15	; 0x0f
    1b5a:	e0 2d       	mov	r30, r0
    1b5c:	30 97       	sbiw	r30, 0x00	; 0
    1b5e:	09 f0       	breq	.+2      	; 0x1b62 <Menu_Poll+0xc6>
				SYS_State->Down_Action();
    1b60:	09 95       	icall
				SYS_State = FindState(SYS_State->Down_Next_State);
    1b62:	e0 91 34 06 	lds	r30, 0x0634
    1b66:	f0 91 35 06 	lds	r31, 0x0635
    1b6a:	84 81       	ldd	r24, Z+4	; 0x04
    1b6c:	95 81       	ldd	r25, Z+5	; 0x05
    1b6e:	e8 d9       	rcall	.-3120   	; 0xf40 <FindState>
    1b70:	90 93 35 06 	sts	0x0635, r25
    1b74:	80 93 34 06 	sts	0x0634, r24
				State_Update();
    1b78:	0f da       	rcall	.-3042   	; 0xf98 <State_Update>
				DrawScreen();
    1b7a:	af d9       	rcall	.-3234   	; 0xeda <DrawScreen>
				break;
    1b7c:	1a c0       	rjmp	.+52     	; 0x1bb2 <Menu_Poll+0x116>
			case BUTTON_ENTER:
				if(SYS_State->Ent_Action!= NULL)
    1b7e:	e0 91 34 06 	lds	r30, 0x0634
    1b82:	f0 91 35 06 	lds	r31, 0x0635
    1b86:	04 88       	ldd	r0, Z+20	; 0x14
    1b88:	f5 89       	ldd	r31, Z+21	; 0x15
    1b8a:	e0 2d       	mov	r30, r0
    1b8c:	30 97       	sbiw	r30, 0x00	; 0
    1b8e:	09 f0       	breq	.+2      	; 0x1b92 <Menu_Poll+0xf6>
				SYS_State->Ent_Action();
    1b90:	09 95       	icall
				SYS_State = FindState(SYS_State->Ent_Next_State);
    1b92:	e0 91 34 06 	lds	r30, 0x0634
    1b96:	f0 91 35 06 	lds	r31, 0x0635
    1b9a:	82 85       	ldd	r24, Z+10	; 0x0a
    1b9c:	93 85       	ldd	r25, Z+11	; 0x0b
    1b9e:	d0 d9       	rcall	.-3168   	; 0xf40 <FindState>
    1ba0:	90 93 35 06 	sts	0x0635, r25
    1ba4:	80 93 34 06 	sts	0x0634, r24
				State_Update();
    1ba8:	f7 d9       	rcall	.-3090   	; 0xf98 <State_Update>
				DrawScreen();
    1baa:	97 d9       	rcall	.-3282   	; 0xeda <DrawScreen>
				break;
    1bac:	02 c0       	rjmp	.+4      	; 0x1bb2 <Menu_Poll+0x116>
			default:

				break;
		}
	if(key != KEY_NULL){
    1bae:	8f 3f       	cpi	r24, 0xFF	; 255
    1bb0:	d1 f0       	breq	.+52     	; 0x1be6 <Menu_Poll+0x14a>
			Timer0_RemoveCallbackFunction(Current_TimerFunc);
    1bb2:	80 91 32 06 	lds	r24, 0x0632
    1bb6:	90 91 33 06 	lds	r25, 0x0633
    1bba:	13 d1       	rcall	.+550    	; 0x1de2 <Timer0_RemoveCallbackFunction>
			Current_TimerFunc = SYS_State->Timer_Action;
    1bbc:	e0 91 34 06 	lds	r30, 0x0634
    1bc0:	f0 91 35 06 	lds	r31, 0x0635
    1bc4:	06 88       	ldd	r0, Z+22	; 0x16
    1bc6:	f7 89       	ldd	r31, Z+23	; 0x17
    1bc8:	e0 2d       	mov	r30, r0
    1bca:	f0 93 33 06 	sts	0x0633, r31
    1bce:	e0 93 32 06 	sts	0x0632, r30
			if(Current_TimerFunc != NULL){
    1bd2:	30 97       	sbiw	r30, 0x00	; 0
    1bd4:	41 f0       	breq	.+16     	; 0x1be6 <Menu_Poll+0x14a>
			Current_TimerFunc();
    1bd6:	09 95       	icall
			Timer0_RegisterCallbackFunction(Current_TimerFunc,1000);}	
    1bd8:	68 ee       	ldi	r22, 0xE8	; 232
    1bda:	73 e0       	ldi	r23, 0x03	; 3
    1bdc:	80 91 32 06 	lds	r24, 0x0632
    1be0:	90 91 33 06 	lds	r25, 0x0633
    1be4:	a9 d0       	rcall	.+338    	; 0x1d38 <Timer0_RegisterCallbackFunction>
	}
	
	if(START_Read()){
    1be6:	72 d9       	rcall	.-3356   	; 0xecc <START_Read>
    1be8:	88 23       	and	r24, r24
    1bea:	51 f0       	breq	.+20     	; 0x1c00 <Menu_Poll+0x164>
		if(!switch_start){
    1bec:	80 91 28 06 	lds	r24, 0x0628
    1bf0:	81 11       	cpse	r24, r1
    1bf2:	11 c0       	rjmp	.+34     	; 0x1c16 <Menu_Poll+0x17a>
			switch_start = true;
    1bf4:	81 e0       	ldi	r24, 0x01	; 1
    1bf6:	80 93 28 06 	sts	0x0628, r24
			Act_InitSystem();
    1bfa:	0c 94 c7 04 	jmp	0x98e	; 0x98e <Act_InitSystem>
    1bfe:	08 95       	ret
			}
	}
	else{
		if(swtich_monitoring)
    1c00:	80 91 27 06 	lds	r24, 0x0627
    1c04:	88 23       	and	r24, r24
    1c06:	19 f0       	breq	.+6      	; 0x1c0e <Menu_Poll+0x172>
			Act_TerminatSystem();
    1c08:	0c 94 3f 05 	jmp	0xa7e	; 0xa7e <Act_TerminatSystem>
    1c0c:	08 95       	ret
		else{
		Airfan(STOP);
    1c0e:	80 e0       	ldi	r24, 0x00	; 0
    1c10:	4a d9       	rcall	.-3436   	; 0xea6 <Airfan>
		DustValve(IO_OFF);
    1c12:	80 e0       	ldi	r24, 0x00	; 0
    1c14:	55 c9       	rjmp	.-3414   	; 0xec0 <DustValve>
    1c16:	08 95       	ret

00001c18 <Timer0_Init>:

timer_event EventList[TIMER0_NUM_CALLBACKS];
uint8_t CountDownTimers[TIMER0_NUM_COUNTDOWNTIMERS];


void Timer0_Init(void){
    1c18:	ee e4       	ldi	r30, 0x4E	; 78
    1c1a:	f6 e0       	ldi	r31, 0x06	; 6
    1c1c:	8e e7       	ldi	r24, 0x7E	; 126
    1c1e:	96 e0       	ldi	r25, 0x06	; 6
		uint8_t i;
		for (i=0; i<TIMER0_NUM_CALLBACKS; i++){
		EventList[i].pFunc = NULL;
    1c20:	11 82       	std	Z+1, r1	; 0x01
    1c22:	10 82       	st	Z, r1
		EventList[i].event_intval = 0;
    1c24:	13 82       	std	Z+3, r1	; 0x03
    1c26:	12 82       	std	Z+2, r1	; 0x02
		EventList[i].counter = 0;
    1c28:	15 82       	std	Z+5, r1	; 0x05
    1c2a:	14 82       	std	Z+4, r1	; 0x04
    1c2c:	36 96       	adiw	r30, 0x06	; 6
uint8_t CountDownTimers[TIMER0_NUM_COUNTDOWNTIMERS];


void Timer0_Init(void){
		uint8_t i;
		for (i=0; i<TIMER0_NUM_CALLBACKS; i++){
    1c2e:	e8 17       	cp	r30, r24
    1c30:	f9 07       	cpc	r31, r25
    1c32:	b1 f7       	brne	.-20     	; 0x1c20 <Timer0_Init+0x8>
    1c34:	e6 e4       	ldi	r30, 0x46	; 70
    1c36:	f6 e0       	ldi	r31, 0x06	; 6
    1c38:	8e e4       	ldi	r24, 0x4E	; 78
    1c3a:	96 e0       	ldi	r25, 0x06	; 6
		EventList[i].pFunc = NULL;
		EventList[i].event_intval = 0;
		EventList[i].counter = 0;
		}
		for (i=0; i<TIMER0_NUM_COUNTDOWNTIMERS; i++)
		CountDownTimers[i] = 0xff;
    1c3c:	2f ef       	ldi	r18, 0xFF	; 255
    1c3e:	21 93       	st	Z+, r18
		for (i=0; i<TIMER0_NUM_CALLBACKS; i++){
		EventList[i].pFunc = NULL;
		EventList[i].event_intval = 0;
		EventList[i].counter = 0;
		}
		for (i=0; i<TIMER0_NUM_COUNTDOWNTIMERS; i++)
    1c40:	e8 17       	cp	r30, r24
    1c42:	f9 07       	cpc	r31, r25
    1c44:	e1 f7       	brne	.-8      	; 0x1c3e <Timer0_Init+0x26>
		CountDownTimers[i] = 0xff;
		TCCR0 =0;
    1c46:	13 be       	out	0x33, r1	; 51
		TCCR0 |= _BV(CS00)|_BV(CS01)|_BV(CS02);
    1c48:	83 b7       	in	r24, 0x33	; 51
    1c4a:	87 60       	ori	r24, 0x07	; 7
    1c4c:	83 bf       	out	0x33, r24	; 51
		TCNT0 = 184;
    1c4e:	88 eb       	ldi	r24, 0xB8	; 184
    1c50:	82 bf       	out	0x32, r24	; 50
		TIFR |=_BV(TOV0);
    1c52:	86 b7       	in	r24, 0x36	; 54
    1c54:	81 60       	ori	r24, 0x01	; 1
    1c56:	86 bf       	out	0x36, r24	; 54
		TIMSK |= _BV(OCIE0);
    1c58:	87 b7       	in	r24, 0x37	; 55
    1c5a:	82 60       	ori	r24, 0x02	; 2
    1c5c:	87 bf       	out	0x37, r24	; 55
			sei();
    1c5e:	78 94       	sei
    1c60:	08 95       	ret

00001c62 <__vector_15>:
}


ISR(TIMER0_COMP_vect){
    1c62:	1f 92       	push	r1
    1c64:	0f 92       	push	r0
    1c66:	0f b6       	in	r0, 0x3f	; 63
    1c68:	0f 92       	push	r0
    1c6a:	11 24       	eor	r1, r1
    1c6c:	0b b6       	in	r0, 0x3b	; 59
    1c6e:	0f 92       	push	r0
    1c70:	0f 93       	push	r16
    1c72:	1f 93       	push	r17
    1c74:	2f 93       	push	r18
    1c76:	3f 93       	push	r19
    1c78:	4f 93       	push	r20
    1c7a:	5f 93       	push	r21
    1c7c:	6f 93       	push	r22
    1c7e:	7f 93       	push	r23
    1c80:	8f 93       	push	r24
    1c82:	9f 93       	push	r25
    1c84:	af 93       	push	r26
    1c86:	bf 93       	push	r27
    1c88:	cf 93       	push	r28
    1c8a:	df 93       	push	r29
    1c8c:	ef 93       	push	r30
    1c8e:	ff 93       	push	r31
	static uint16_t tmp_counter=0;
	TCNT0 = 184;
    1c90:	88 eb       	ldi	r24, 0xB8	; 184
    1c92:	82 bf       	out	0x32, r24	; 50
    1c94:	ce e4       	ldi	r28, 0x4E	; 78
    1c96:	d6 e0       	ldi	r29, 0x06	; 6
    1c98:	0e e7       	ldi	r16, 0x7E	; 126
    1c9a:	16 e0       	ldi	r17, 0x06	; 6
	uint8_t i;
	for(i=0;i<TIMER0_NUM_CALLBACKS;i++){
		if(EventList[i].pFunc !=NULL){
    1c9c:	88 81       	ld	r24, Y
    1c9e:	99 81       	ldd	r25, Y+1	; 0x01
    1ca0:	89 2b       	or	r24, r25
    1ca2:	81 f0       	breq	.+32     	; 0x1cc4 <__vector_15+0x62>
			if(EventList[i].counter == EventList[i].event_intval){
    1ca4:	8c 81       	ldd	r24, Y+4	; 0x04
    1ca6:	9d 81       	ldd	r25, Y+5	; 0x05
    1ca8:	2a 81       	ldd	r18, Y+2	; 0x02
    1caa:	3b 81       	ldd	r19, Y+3	; 0x03
    1cac:	82 17       	cp	r24, r18
    1cae:	93 07       	cpc	r25, r19
    1cb0:	31 f4       	brne	.+12     	; 0x1cbe <__vector_15+0x5c>
				EventList[i].counter = 0;
    1cb2:	1d 82       	std	Y+5, r1	; 0x05
    1cb4:	1c 82       	std	Y+4, r1	; 0x04
				EventList[i].pFunc();
    1cb6:	e8 81       	ld	r30, Y
    1cb8:	f9 81       	ldd	r31, Y+1	; 0x01
    1cba:	09 95       	icall
    1cbc:	03 c0       	rjmp	.+6      	; 0x1cc4 <__vector_15+0x62>
			}
		else 
			EventList[i].counter++;
    1cbe:	01 96       	adiw	r24, 0x01	; 1
    1cc0:	9d 83       	std	Y+5, r25	; 0x05
    1cc2:	8c 83       	std	Y+4, r24	; 0x04
    1cc4:	26 96       	adiw	r28, 0x06	; 6

ISR(TIMER0_COMP_vect){
	static uint16_t tmp_counter=0;
	TCNT0 = 184;
	uint8_t i;
	for(i=0;i<TIMER0_NUM_CALLBACKS;i++){
    1cc6:	c0 17       	cp	r28, r16
    1cc8:	d1 07       	cpc	r29, r17
    1cca:	41 f7       	brne	.-48     	; 0x1c9c <__vector_15+0x3a>
		else 
			EventList[i].counter++;
		}
	}
	
	if(tmp_counter++==100){
    1ccc:	80 91 36 06 	lds	r24, 0x0636
    1cd0:	90 91 37 06 	lds	r25, 0x0637
    1cd4:	9c 01       	movw	r18, r24
    1cd6:	2f 5f       	subi	r18, 0xFF	; 255
    1cd8:	3f 4f       	sbci	r19, 0xFF	; 255
    1cda:	30 93 37 06 	sts	0x0637, r19
    1cde:	20 93 36 06 	sts	0x0636, r18
    1ce2:	84 36       	cpi	r24, 0x64	; 100
    1ce4:	91 05       	cpc	r25, r1
    1ce6:	89 f4       	brne	.+34     	; 0x1d0a <__vector_15+0xa8>
    1ce8:	e6 e4       	ldi	r30, 0x46	; 70
    1cea:	f6 e0       	ldi	r31, 0x06	; 6
    1cec:	8e e4       	ldi	r24, 0x4E	; 78
    1cee:	96 e0       	ldi	r25, 0x06	; 6
		for(i=0;i<TIMER0_NUM_COUNTDOWNTIMERS;i++){
			if(CountDownTimers[i] != 0xff && CountDownTimers[i]!=0)
    1cf0:	20 81       	ld	r18, Z
    1cf2:	21 50       	subi	r18, 0x01	; 1
    1cf4:	2e 3f       	cpi	r18, 0xFE	; 254
    1cf6:	08 f4       	brcc	.+2      	; 0x1cfa <__vector_15+0x98>
				CountDownTimers[i]--;
    1cf8:	20 83       	st	Z, r18
    1cfa:	31 96       	adiw	r30, 0x01	; 1
			EventList[i].counter++;
		}
	}
	
	if(tmp_counter++==100){
		for(i=0;i<TIMER0_NUM_COUNTDOWNTIMERS;i++){
    1cfc:	e8 17       	cp	r30, r24
    1cfe:	f9 07       	cpc	r31, r25
    1d00:	b9 f7       	brne	.-18     	; 0x1cf0 <__vector_15+0x8e>
			if(CountDownTimers[i] != 0xff && CountDownTimers[i]!=0)
				CountDownTimers[i]--;
		}
		tmp_counter =0;
    1d02:	10 92 37 06 	sts	0x0637, r1
    1d06:	10 92 36 06 	sts	0x0636, r1
	}
	
}
    1d0a:	ff 91       	pop	r31
    1d0c:	ef 91       	pop	r30
    1d0e:	df 91       	pop	r29
    1d10:	cf 91       	pop	r28
    1d12:	bf 91       	pop	r27
    1d14:	af 91       	pop	r26
    1d16:	9f 91       	pop	r25
    1d18:	8f 91       	pop	r24
    1d1a:	7f 91       	pop	r23
    1d1c:	6f 91       	pop	r22
    1d1e:	5f 91       	pop	r21
    1d20:	4f 91       	pop	r20
    1d22:	3f 91       	pop	r19
    1d24:	2f 91       	pop	r18
    1d26:	1f 91       	pop	r17
    1d28:	0f 91       	pop	r16
    1d2a:	0f 90       	pop	r0
    1d2c:	0b be       	out	0x3b, r0	; 59
    1d2e:	0f 90       	pop	r0
    1d30:	0f be       	out	0x3f, r0	; 63
    1d32:	0f 90       	pop	r0
    1d34:	1f 90       	pop	r1
    1d36:	18 95       	reti

00001d38 <Timer0_RegisterCallbackFunction>:

bool Timer0_RegisterCallbackFunction(TIMER_CALLBACK_FUNC pFunc, uint16_t time_interval)
{
    1d38:	cf 93       	push	r28
    1d3a:	df 93       	push	r29
	uint8_t i;
	if(time_interval < 10) 
    1d3c:	6a 30       	cpi	r22, 0x0A	; 10
    1d3e:	71 05       	cpc	r23, r1
    1d40:	10 f4       	brcc	.+4      	; 0x1d46 <Timer0_RegisterCallbackFunction+0xe>
		time_interval = 10;
    1d42:	6a e0       	ldi	r22, 0x0A	; 10
    1d44:	70 e0       	ldi	r23, 0x00	; 0
		
	for (i=0; i<TIMER0_NUM_CALLBACKS; i++)
	{
		if (EventList[i].pFunc == pFunc)
    1d46:	c0 91 4e 06 	lds	r28, 0x064E
    1d4a:	d0 91 4f 06 	lds	r29, 0x064F
    1d4e:	c8 17       	cp	r28, r24
    1d50:	d9 07       	cpc	r29, r25
    1d52:	09 f4       	brne	.+2      	; 0x1d56 <Timer0_RegisterCallbackFunction+0x1e>
    1d54:	3e c0       	rjmp	.+124    	; 0x1dd2 <Timer0_RegisterCallbackFunction+0x9a>
    1d56:	ae e7       	ldi	r26, 0x7E	; 126
    1d58:	b6 e0       	ldi	r27, 0x06	; 6
    1d5a:	e4 e5       	ldi	r30, 0x54	; 84
    1d5c:	f6 e0       	ldi	r31, 0x06	; 6
    1d5e:	40 81       	ld	r20, Z
    1d60:	51 81       	ldd	r21, Z+1	; 0x01
    1d62:	48 17       	cp	r20, r24
    1d64:	59 07       	cpc	r21, r25
    1d66:	b9 f1       	breq	.+110    	; 0x1dd6 <Timer0_RegisterCallbackFunction+0x9e>
    1d68:	36 96       	adiw	r30, 0x06	; 6
{
	uint8_t i;
	if(time_interval < 10) 
		time_interval = 10;
		
	for (i=0; i<TIMER0_NUM_CALLBACKS; i++)
    1d6a:	ea 17       	cp	r30, r26
    1d6c:	fb 07       	cpc	r31, r27
    1d6e:	b9 f7       	brne	.-18     	; 0x1d5e <Timer0_RegisterCallbackFunction+0x26>
		return true;
	}
	
	for (i=0; i<TIMER0_NUM_CALLBACKS; i++)
	{
		if (EventList[i].pFunc == NULL)
    1d70:	cd 2b       	or	r28, r29
    1d72:	51 f0       	breq	.+20     	; 0x1d88 <Timer0_RegisterCallbackFunction+0x50>
    1d74:	e4 e5       	ldi	r30, 0x54	; 84
    1d76:	f6 e0       	ldi	r31, 0x06	; 6
    1d78:	41 e0       	ldi	r20, 0x01	; 1
    1d7a:	50 e0       	ldi	r21, 0x00	; 0
    1d7c:	ea 01       	movw	r28, r20
    1d7e:	a0 81       	ld	r26, Z
    1d80:	b1 81       	ldd	r27, Z+1	; 0x01
    1d82:	ab 2b       	or	r26, r27
    1d84:	f9 f4       	brne	.+62     	; 0x1dc4 <Timer0_RegisterCallbackFunction+0x8c>
    1d86:	02 c0       	rjmp	.+4      	; 0x1d8c <Timer0_RegisterCallbackFunction+0x54>
    1d88:	c0 e0       	ldi	r28, 0x00	; 0
    1d8a:	d0 e0       	ldi	r29, 0x00	; 0
		{
			EventList[i].pFunc = pFunc;
    1d8c:	ae 01       	movw	r20, r28
    1d8e:	44 0f       	add	r20, r20
    1d90:	55 1f       	adc	r21, r21
    1d92:	fa 01       	movw	r30, r20
    1d94:	ec 0f       	add	r30, r28
    1d96:	fd 1f       	adc	r31, r29
    1d98:	ee 0f       	add	r30, r30
    1d9a:	ff 1f       	adc	r31, r31
    1d9c:	e2 5b       	subi	r30, 0xB2	; 178
    1d9e:	f9 4f       	sbci	r31, 0xF9	; 249
    1da0:	91 83       	std	Z+1, r25	; 0x01
    1da2:	80 83       	st	Z, r24
			EventList[i].event_intval = time_interval/10;
    1da4:	9b 01       	movw	r18, r22
    1da6:	ad ec       	ldi	r26, 0xCD	; 205
    1da8:	bc ec       	ldi	r27, 0xCC	; 204
    1daa:	37 d6       	rcall	.+3182   	; 0x2a1a <__umulhisi3>
    1dac:	96 95       	lsr	r25
    1dae:	87 95       	ror	r24
    1db0:	96 95       	lsr	r25
    1db2:	87 95       	ror	r24
    1db4:	96 95       	lsr	r25
    1db6:	87 95       	ror	r24
    1db8:	93 83       	std	Z+3, r25	; 0x03
    1dba:	82 83       	std	Z+2, r24	; 0x02
			EventList[i].counter = 0;
    1dbc:	15 82       	std	Z+5, r1	; 0x05
    1dbe:	14 82       	std	Z+4, r1	; 0x04
			return true;
    1dc0:	81 e0       	ldi	r24, 0x01	; 1
    1dc2:	0c c0       	rjmp	.+24     	; 0x1ddc <Timer0_RegisterCallbackFunction+0xa4>
    1dc4:	4f 5f       	subi	r20, 0xFF	; 255
    1dc6:	5f 4f       	sbci	r21, 0xFF	; 255
    1dc8:	36 96       	adiw	r30, 0x06	; 6
	{
		if (EventList[i].pFunc == pFunc)
		return true;
	}
	
	for (i=0; i<TIMER0_NUM_CALLBACKS; i++)
    1dca:	48 30       	cpi	r20, 0x08	; 8
    1dcc:	51 05       	cpc	r21, r1
    1dce:	b1 f6       	brne	.-84     	; 0x1d7c <Timer0_RegisterCallbackFunction+0x44>
    1dd0:	04 c0       	rjmp	.+8      	; 0x1dda <Timer0_RegisterCallbackFunction+0xa2>
		time_interval = 10;
		
	for (i=0; i<TIMER0_NUM_CALLBACKS; i++)
	{
		if (EventList[i].pFunc == pFunc)
		return true;
    1dd2:	81 e0       	ldi	r24, 0x01	; 1
    1dd4:	03 c0       	rjmp	.+6      	; 0x1ddc <Timer0_RegisterCallbackFunction+0xa4>
    1dd6:	81 e0       	ldi	r24, 0x01	; 1
    1dd8:	01 c0       	rjmp	.+2      	; 0x1ddc <Timer0_RegisterCallbackFunction+0xa4>
			EventList[i].counter = 0;
			return true;
		}
	}
	
	return false;
    1dda:	80 e0       	ldi	r24, 0x00	; 0
}
    1ddc:	df 91       	pop	r29
    1dde:	cf 91       	pop	r28
    1de0:	08 95       	ret

00001de2 <Timer0_RemoveCallbackFunction>:
{
	uint8_t i;
	
	for (i=0; i<TIMER0_NUM_CALLBACKS; i++)
	{
		if (EventList[i].pFunc == pFunc)
    1de2:	20 91 4e 06 	lds	r18, 0x064E
    1de6:	30 91 4f 06 	lds	r19, 0x064F
    1dea:	28 17       	cp	r18, r24
    1dec:	39 07       	cpc	r19, r25
    1dee:	59 f0       	breq	.+22     	; 0x1e06 <Timer0_RemoveCallbackFunction+0x24>
    1df0:	e4 e5       	ldi	r30, 0x54	; 84
    1df2:	f6 e0       	ldi	r31, 0x06	; 6
    1df4:	21 e0       	ldi	r18, 0x01	; 1
    1df6:	30 e0       	ldi	r19, 0x00	; 0
    1df8:	b9 01       	movw	r22, r18
    1dfa:	40 81       	ld	r20, Z
    1dfc:	51 81       	ldd	r21, Z+1	; 0x01
    1dfe:	48 17       	cp	r20, r24
    1e00:	59 07       	cpc	r21, r25
    1e02:	e1 f4       	brne	.+56     	; 0x1e3c <Timer0_RemoveCallbackFunction+0x5a>
    1e04:	02 c0       	rjmp	.+4      	; 0x1e0a <Timer0_RemoveCallbackFunction+0x28>
    1e06:	60 e0       	ldi	r22, 0x00	; 0
    1e08:	70 e0       	ldi	r23, 0x00	; 0
		{
			EventList[i].pFunc = NULL;
    1e0a:	cb 01       	movw	r24, r22
    1e0c:	88 0f       	add	r24, r24
    1e0e:	99 1f       	adc	r25, r25
    1e10:	fc 01       	movw	r30, r24
    1e12:	e6 0f       	add	r30, r22
    1e14:	f7 1f       	adc	r31, r23
    1e16:	ee 0f       	add	r30, r30
    1e18:	ff 1f       	adc	r31, r31
    1e1a:	e2 5b       	subi	r30, 0xB2	; 178
    1e1c:	f9 4f       	sbci	r31, 0xF9	; 249
    1e1e:	11 82       	std	Z+1, r1	; 0x01
    1e20:	10 82       	st	Z, r1
			EventList[i].event_intval =0;
    1e22:	13 82       	std	Z+3, r1	; 0x03
    1e24:	12 82       	std	Z+2, r1	; 0x02
			EventList[i].counter = 0;
    1e26:	68 0f       	add	r22, r24
    1e28:	79 1f       	adc	r23, r25
    1e2a:	fb 01       	movw	r30, r22
    1e2c:	ee 0f       	add	r30, r30
    1e2e:	ff 1f       	adc	r31, r31
    1e30:	e2 5b       	subi	r30, 0xB2	; 178
    1e32:	f9 4f       	sbci	r31, 0xF9	; 249
    1e34:	15 82       	std	Z+5, r1	; 0x05
    1e36:	14 82       	std	Z+4, r1	; 0x04
			return true;
    1e38:	81 e0       	ldi	r24, 0x01	; 1
    1e3a:	08 95       	ret
    1e3c:	2f 5f       	subi	r18, 0xFF	; 255
    1e3e:	3f 4f       	sbci	r19, 0xFF	; 255
    1e40:	36 96       	adiw	r30, 0x06	; 6

bool Timer0_RemoveCallbackFunction(TIMER_CALLBACK_FUNC pFunc)
{
	uint8_t i;
	
	for (i=0; i<TIMER0_NUM_CALLBACKS; i++)
    1e42:	28 30       	cpi	r18, 0x08	; 8
    1e44:	31 05       	cpc	r19, r1
    1e46:	c1 f6       	brne	.-80     	; 0x1df8 <Timer0_RemoveCallbackFunction+0x16>
			EventList[i].counter = 0;
			return true;
		}
	}
	
	return false;
    1e48:	80 e0       	ldi	r24, 0x00	; 0
}
    1e4a:	08 95       	ret

00001e4c <Timer0_AllocateCountdownTimer>:

uint8_t Timer0_AllocateCountdownTimer(void)
{
	uint8_t i;
	for (i=0; i<TIMER0_NUM_COUNTDOWNTIMERS; i++)
	if (CountDownTimers[i] == 255)
    1e4c:	80 91 46 06 	lds	r24, 0x0646
    1e50:	8f 3f       	cpi	r24, 0xFF	; 255
    1e52:	51 f0       	breq	.+20     	; 0x1e68 <Timer0_AllocateCountdownTimer+0x1c>
    1e54:	e7 e4       	ldi	r30, 0x47	; 71
    1e56:	f6 e0       	ldi	r31, 0x06	; 6
    1e58:	21 e0       	ldi	r18, 0x01	; 1
    1e5a:	30 e0       	ldi	r19, 0x00	; 0
    1e5c:	82 2f       	mov	r24, r18
    1e5e:	a9 01       	movw	r20, r18
    1e60:	91 91       	ld	r25, Z+
    1e62:	9f 3f       	cpi	r25, 0xFF	; 255
    1e64:	51 f4       	brne	.+20     	; 0x1e7a <Timer0_AllocateCountdownTimer+0x2e>
    1e66:	03 c0       	rjmp	.+6      	; 0x1e6e <Timer0_AllocateCountdownTimer+0x22>
    1e68:	40 e0       	ldi	r20, 0x00	; 0
    1e6a:	50 e0       	ldi	r21, 0x00	; 0
}

uint8_t Timer0_AllocateCountdownTimer(void)
{
	uint8_t i;
	for (i=0; i<TIMER0_NUM_COUNTDOWNTIMERS; i++)
    1e6c:	80 e0       	ldi	r24, 0x00	; 0
	if (CountDownTimers[i] == 255)
	{
		CountDownTimers[i] = 0;
    1e6e:	fa 01       	movw	r30, r20
    1e70:	ea 5b       	subi	r30, 0xBA	; 186
    1e72:	f9 4f       	sbci	r31, 0xF9	; 249
    1e74:	10 82       	st	Z, r1
		return i+1;
    1e76:	8f 5f       	subi	r24, 0xFF	; 255
    1e78:	08 95       	ret
    1e7a:	2f 5f       	subi	r18, 0xFF	; 255
    1e7c:	3f 4f       	sbci	r19, 0xFF	; 255
}

uint8_t Timer0_AllocateCountdownTimer(void)
{
	uint8_t i;
	for (i=0; i<TIMER0_NUM_COUNTDOWNTIMERS; i++)
    1e7e:	28 30       	cpi	r18, 0x08	; 8
    1e80:	31 05       	cpc	r19, r1
    1e82:	61 f7       	brne	.-40     	; 0x1e5c <Timer0_AllocateCountdownTimer+0x10>
	{
		CountDownTimers[i] = 0;
		return i+1;
	}

	return 0;
    1e84:	80 e0       	ldi	r24, 0x00	; 0
}
    1e86:	08 95       	ret

00001e88 <buttons_init>:
uint8_t KEY = KEY_NULL;

uint8_t CountdownTimerHandler;

void buttons_init(void){
	BUTTON_SWITCH_IO_IN;
    1e88:	1a ba       	out	0x1a, r1	; 26
	BUTTON_IO_PULLUP;
    1e8a:	8f ef       	ldi	r24, 0xFF	; 255
    1e8c:	8b bb       	out	0x1b, r24	; 27

	EICRA |= _BV(ISC11);
    1e8e:	ea e6       	ldi	r30, 0x6A	; 106
    1e90:	f0 e0       	ldi	r31, 0x00	; 0
    1e92:	80 81       	ld	r24, Z
    1e94:	88 60       	ori	r24, 0x08	; 8
    1e96:	80 83       	st	Z, r24
	EIMSK |= _BV(1); 
    1e98:	89 b7       	in	r24, 0x39	; 57
    1e9a:	82 60       	ori	r24, 0x02	; 2
    1e9c:	89 bf       	out	0x39, r24	; 57
	DDRD &=~_BV(1);
    1e9e:	89 98       	cbi	0x11, 1	; 17
	PORTD |= _BV(1);
    1ea0:	91 9a       	sbi	0x12, 1	; 18
	
	sei();
    1ea2:	78 94       	sei
	CountdownTimerHandler = Timer0_AllocateCountdownTimer();
    1ea4:	d3 df       	rcall	.-90     	; 0x1e4c <Timer0_AllocateCountdownTimer>
    1ea6:	80 93 7e 06 	sts	0x067E, r24
    1eaa:	08 95       	ret

00001eac <button_interrupt>:




void button_interrupt(){
	uint8_t key_byte = BUTTON_IO_PIN;
    1eac:	89 b3       	in	r24, 0x19	; 25
	uint8_t key;
	key_byte = ~key_byte;
    1eae:	80 95       	com	r24
	
	if(key_byte & _BV(0)) key = BUTTON_DEM;
    1eb0:	80 fd       	sbrc	r24, 0
    1eb2:	15 c0       	rjmp	.+42     	; 0x1ede <button_interrupt+0x32>
	else if(key_byte & _BV(1)) key = BUTTON_ALMRST;
    1eb4:	81 fd       	sbrc	r24, 1
    1eb6:	15 c0       	rjmp	.+42     	; 0x1ee2 <button_interrupt+0x36>
	else if(key_byte & _BV(2)) key=BUTTON_ENTER;
    1eb8:	82 fd       	sbrc	r24, 2
    1eba:	15 c0       	rjmp	.+42     	; 0x1ee6 <button_interrupt+0x3a>
	else if(key_byte & _BV(3)) key=BUTTON_MENU;
    1ebc:	83 fd       	sbrc	r24, 3
    1ebe:	15 c0       	rjmp	.+42     	; 0x1eea <button_interrupt+0x3e>
	else if(key_byte & _BV(4)) key=BUTTON_RIGHT;
    1ec0:	84 fd       	sbrc	r24, 4
    1ec2:	15 c0       	rjmp	.+42     	; 0x1eee <button_interrupt+0x42>
	else if(key_byte & _BV(5)) key=BUTTON_LEFT;
    1ec4:	85 fd       	sbrc	r24, 5
    1ec6:	15 c0       	rjmp	.+42     	; 0x1ef2 <button_interrupt+0x46>
	else if(key_byte & _BV(6)) key=BUTTON_UP;
    1ec8:	86 fd       	sbrc	r24, 6
    1eca:	15 c0       	rjmp	.+42     	; 0x1ef6 <button_interrupt+0x4a>
	else if(key_byte & _BV(7)) key=BUTTON_DOWN;
    1ecc:	88 23       	and	r24, r24
    1ece:	d4 f4       	brge	.+52     	; 0x1f04 <button_interrupt+0x58>
    1ed0:	14 c0       	rjmp	.+40     	; 0x1efa <button_interrupt+0x4e>
	else key=KEY_NULL;
	
	if(key!=KEY_NULL){
		if(!KEY_VALID){
			KEY = key; KEY_VALID = true; 
    1ed2:	90 93 11 04 	sts	0x0411, r25
    1ed6:	81 e0       	ldi	r24, 0x01	; 1
    1ed8:	80 93 38 06 	sts	0x0638, r24
    1edc:	08 95       	ret
void button_interrupt(){
	uint8_t key_byte = BUTTON_IO_PIN;
	uint8_t key;
	key_byte = ~key_byte;
	
	if(key_byte & _BV(0)) key = BUTTON_DEM;
    1ede:	95 e0       	ldi	r25, 0x05	; 5
    1ee0:	0d c0       	rjmp	.+26     	; 0x1efc <button_interrupt+0x50>
	else if(key_byte & _BV(1)) key = BUTTON_ALMRST;
    1ee2:	97 e0       	ldi	r25, 0x07	; 7
    1ee4:	0b c0       	rjmp	.+22     	; 0x1efc <button_interrupt+0x50>
	else if(key_byte & _BV(2)) key=BUTTON_ENTER;
    1ee6:	94 e0       	ldi	r25, 0x04	; 4
    1ee8:	09 c0       	rjmp	.+18     	; 0x1efc <button_interrupt+0x50>
	else if(key_byte & _BV(3)) key=BUTTON_MENU;
    1eea:	96 e0       	ldi	r25, 0x06	; 6
    1eec:	07 c0       	rjmp	.+14     	; 0x1efc <button_interrupt+0x50>
	else if(key_byte & _BV(4)) key=BUTTON_RIGHT;
    1eee:	92 e0       	ldi	r25, 0x02	; 2
    1ef0:	05 c0       	rjmp	.+10     	; 0x1efc <button_interrupt+0x50>
	else if(key_byte & _BV(5)) key=BUTTON_LEFT;
    1ef2:	93 e0       	ldi	r25, 0x03	; 3
    1ef4:	03 c0       	rjmp	.+6      	; 0x1efc <button_interrupt+0x50>
	else if(key_byte & _BV(6)) key=BUTTON_UP;
    1ef6:	90 e0       	ldi	r25, 0x00	; 0
    1ef8:	01 c0       	rjmp	.+2      	; 0x1efc <button_interrupt+0x50>
	else if(key_byte & _BV(7)) key=BUTTON_DOWN;
    1efa:	91 e0       	ldi	r25, 0x01	; 1
	else key=KEY_NULL;
	
	if(key!=KEY_NULL){
		if(!KEY_VALID){
    1efc:	80 91 38 06 	lds	r24, 0x0638
    1f00:	88 23       	and	r24, r24
    1f02:	39 f3       	breq	.-50     	; 0x1ed2 <button_interrupt+0x26>
    1f04:	08 95       	ret

00001f06 <__vector_2>:
	sei();
	CountdownTimerHandler = Timer0_AllocateCountdownTimer();

}

ISR(INT1_vect){
    1f06:	1f 92       	push	r1
    1f08:	0f 92       	push	r0
    1f0a:	0f b6       	in	r0, 0x3f	; 63
    1f0c:	0f 92       	push	r0
    1f0e:	11 24       	eor	r1, r1
    1f10:	0b b6       	in	r0, 0x3b	; 59
    1f12:	0f 92       	push	r0
    1f14:	2f 93       	push	r18
    1f16:	3f 93       	push	r19
    1f18:	4f 93       	push	r20
    1f1a:	5f 93       	push	r21
    1f1c:	6f 93       	push	r22
    1f1e:	7f 93       	push	r23
    1f20:	8f 93       	push	r24
    1f22:	9f 93       	push	r25
    1f24:	af 93       	push	r26
    1f26:	bf 93       	push	r27
    1f28:	ef 93       	push	r30
    1f2a:	ff 93       	push	r31
cli();	
    1f2c:	f8 94       	cli
button_interrupt();
    1f2e:	be df       	rcall	.-132    	; 0x1eac <button_interrupt>
sei();
    1f30:	78 94       	sei
}
    1f32:	ff 91       	pop	r31
    1f34:	ef 91       	pop	r30
    1f36:	bf 91       	pop	r27
    1f38:	af 91       	pop	r26
    1f3a:	9f 91       	pop	r25
    1f3c:	8f 91       	pop	r24
    1f3e:	7f 91       	pop	r23
    1f40:	6f 91       	pop	r22
    1f42:	5f 91       	pop	r21
    1f44:	4f 91       	pop	r20
    1f46:	3f 91       	pop	r19
    1f48:	2f 91       	pop	r18
    1f4a:	0f 90       	pop	r0
    1f4c:	0b be       	out	0x3b, r0	; 59
    1f4e:	0f 90       	pop	r0
    1f50:	0f be       	out	0x3f, r0	; 63
    1f52:	0f 90       	pop	r0
    1f54:	1f 90       	pop	r1
    1f56:	18 95       	reti

00001f58 <getkey>:
	
}

uint8_t getkey(void){
	uint8_t k;
	cli();
    1f58:	f8 94       	cli
	if(KEY_VALID){
    1f5a:	80 91 38 06 	lds	r24, 0x0638
    1f5e:	88 23       	and	r24, r24
    1f60:	29 f0       	breq	.+10     	; 0x1f6c <getkey+0x14>
		k = KEY;
    1f62:	80 91 11 04 	lds	r24, 0x0411
		KEY_VALID = false;
    1f66:	10 92 38 06 	sts	0x0638, r1
    1f6a:	01 c0       	rjmp	.+2      	; 0x1f6e <getkey+0x16>
		
	}
	else k=KEY_NULL;
    1f6c:	8f ef       	ldi	r24, 0xFF	; 255
	sei();
    1f6e:	78 94       	sei
	
	return k;
	
	
	
    1f70:	08 95       	ret

00001f72 <lcd12864_send_byte>:
	{
		lcd12864_set_pos(1,i+1);
		lcd12864_write_str(buffer[i]);
		
	}	
}
    1f72:	98 e0       	ldi	r25, 0x08	; 8
    1f74:	1b 98       	cbi	0x03, 3	; 3
    1f76:	88 23       	and	r24, r24
    1f78:	14 f4       	brge	.+4      	; 0x1f7e <lcd12864_send_byte+0xc>
    1f7a:	1c 9a       	sbi	0x03, 4	; 3
    1f7c:	01 c0       	rjmp	.+2      	; 0x1f80 <lcd12864_send_byte+0xe>
    1f7e:	1c 98       	cbi	0x03, 4	; 3
    1f80:	88 0f       	add	r24, r24
    1f82:	00 00       	nop
    1f84:	00 00       	nop
    1f86:	00 00       	nop
    1f88:	1b 9a       	sbi	0x03, 3	; 3
    1f8a:	00 00       	nop
    1f8c:	00 00       	nop
    1f8e:	91 50       	subi	r25, 0x01	; 1
    1f90:	89 f7       	brne	.-30     	; 0x1f74 <lcd12864_send_byte+0x2>
    1f92:	08 95       	ret

00001f94 <lcd12864_wait_busy>:
    1f94:	80 e0       	ldi	r24, 0x00	; 0
    1f96:	90 e0       	ldi	r25, 0x00	; 0
    1f98:	01 96       	adiw	r24, 0x01	; 1
    1f9a:	88 3b       	cpi	r24, 0xB8	; 184
    1f9c:	91 05       	cpc	r25, r1
    1f9e:	e1 f7       	brne	.-8      	; 0x1f98 <lcd12864_wait_busy+0x4>
    1fa0:	08 95       	ret

00001fa2 <lcd12864_send_data>:
    1fa2:	cf 93       	push	r28
    1fa4:	c8 2f       	mov	r28, r24
    1fa6:	1e 9a       	sbi	0x03, 6	; 3
    1fa8:	8a ef       	ldi	r24, 0xFA	; 250
    1faa:	e3 df       	rcall	.-58     	; 0x1f72 <lcd12864_send_byte>
    1fac:	8c 2f       	mov	r24, r28
    1fae:	80 7f       	andi	r24, 0xF0	; 240
    1fb0:	e0 df       	rcall	.-64     	; 0x1f72 <lcd12864_send_byte>
    1fb2:	8c 2f       	mov	r24, r28
    1fb4:	82 95       	swap	r24
    1fb6:	80 7f       	andi	r24, 0xF0	; 240
    1fb8:	dc df       	rcall	.-72     	; 0x1f72 <lcd12864_send_byte>
    1fba:	1e 98       	cbi	0x03, 6	; 3
    1fbc:	eb df       	rcall	.-42     	; 0x1f94 <lcd12864_wait_busy>
    1fbe:	cf 91       	pop	r28
    1fc0:	08 95       	ret

00001fc2 <lcd12864_send_cmd>:
    1fc2:	cf 93       	push	r28
    1fc4:	c8 2f       	mov	r28, r24
    1fc6:	1e 9a       	sbi	0x03, 6	; 3
    1fc8:	88 ef       	ldi	r24, 0xF8	; 248
    1fca:	d3 df       	rcall	.-90     	; 0x1f72 <lcd12864_send_byte>
    1fcc:	8c 2f       	mov	r24, r28
    1fce:	80 7f       	andi	r24, 0xF0	; 240
    1fd0:	d0 df       	rcall	.-96     	; 0x1f72 <lcd12864_send_byte>
    1fd2:	8c 2f       	mov	r24, r28
    1fd4:	82 95       	swap	r24
    1fd6:	80 7f       	andi	r24, 0xF0	; 240
    1fd8:	cc df       	rcall	.-104    	; 0x1f72 <lcd12864_send_byte>
    1fda:	dc df       	rcall	.-72     	; 0x1f94 <lcd12864_wait_busy>
    1fdc:	1e 98       	cbi	0x03, 6	; 3
    1fde:	cf 91       	pop	r28
    1fe0:	08 95       	ret

00001fe2 <lcd12864_clear>:
    1fe2:	81 e0       	ldi	r24, 0x01	; 1
    1fe4:	ee df       	rcall	.-36     	; 0x1fc2 <lcd12864_send_cmd>
    1fe6:	80 e0       	ldi	r24, 0x00	; 0
    1fe8:	90 e0       	ldi	r25, 0x00	; 0
    1fea:	01 96       	adiw	r24, 0x01	; 1
    1fec:	81 15       	cp	r24, r1
    1fee:	20 e3       	ldi	r18, 0x30	; 48
    1ff0:	92 07       	cpc	r25, r18
    1ff2:	d9 f7       	brne	.-10     	; 0x1fea <lcd12864_clear+0x8>
    1ff4:	08 95       	ret

00001ff6 <lcd12864_set_pos>:
    1ff6:	62 30       	cpi	r22, 0x02	; 2
    1ff8:	89 f0       	breq	.+34     	; 0x201c <lcd12864_set_pos+0x26>
    1ffa:	18 f4       	brcc	.+6      	; 0x2002 <lcd12864_set_pos+0xc>
    1ffc:	61 30       	cpi	r22, 0x01	; 1
    1ffe:	31 f0       	breq	.+12     	; 0x200c <lcd12864_set_pos+0x16>
    2000:	0b c0       	rjmp	.+22     	; 0x2018 <lcd12864_set_pos+0x22>
    2002:	63 30       	cpi	r22, 0x03	; 3
    2004:	29 f0       	breq	.+10     	; 0x2010 <lcd12864_set_pos+0x1a>
    2006:	64 30       	cpi	r22, 0x04	; 4
    2008:	29 f0       	breq	.+10     	; 0x2014 <lcd12864_set_pos+0x1e>
    200a:	06 c0       	rjmp	.+12     	; 0x2018 <lcd12864_set_pos+0x22>
    200c:	90 e8       	ldi	r25, 0x80	; 128
    200e:	07 c0       	rjmp	.+14     	; 0x201e <lcd12864_set_pos+0x28>
    2010:	98 e8       	ldi	r25, 0x88	; 136
    2012:	05 c0       	rjmp	.+10     	; 0x201e <lcd12864_set_pos+0x28>
    2014:	98 e9       	ldi	r25, 0x98	; 152
    2016:	03 c0       	rjmp	.+6      	; 0x201e <lcd12864_set_pos+0x28>
    2018:	98 e9       	ldi	r25, 0x98	; 152
    201a:	01 c0       	rjmp	.+2      	; 0x201e <lcd12864_set_pos+0x28>
    201c:	90 e9       	ldi	r25, 0x90	; 144
    201e:	81 31       	cpi	r24, 0x11	; 17
    2020:	10 f4       	brcc	.+4      	; 0x2026 <lcd12864_set_pos+0x30>
    2022:	89 2b       	or	r24, r25
    2024:	ce cf       	rjmp	.-100    	; 0x1fc2 <lcd12864_send_cmd>
    2026:	08 95       	ret

00002028 <lcd12864_write_char>:
    2028:	bc cf       	rjmp	.-136    	; 0x1fa2 <lcd12864_send_data>
    202a:	08 95       	ret

0000202c <lcd12864_write_str>:
    202c:	1f 93       	push	r17
    202e:	cf 93       	push	r28
    2030:	df 93       	push	r29
    2032:	ec 01       	movw	r28, r24
    2034:	88 81       	ld	r24, Y
    2036:	88 23       	and	r24, r24
    2038:	49 f0       	breq	.+18     	; 0x204c <lcd12864_write_str+0x20>
    203a:	10 e0       	ldi	r17, 0x00	; 0
    203c:	b2 df       	rcall	.-156    	; 0x1fa2 <lcd12864_send_data>
    203e:	1f 5f       	subi	r17, 0xFF	; 255
    2040:	fe 01       	movw	r30, r28
    2042:	e1 0f       	add	r30, r17
    2044:	f1 1d       	adc	r31, r1
    2046:	80 81       	ld	r24, Z
    2048:	81 11       	cpse	r24, r1
    204a:	f8 cf       	rjmp	.-16     	; 0x203c <lcd12864_write_str+0x10>
    204c:	df 91       	pop	r29
    204e:	cf 91       	pop	r28
    2050:	1f 91       	pop	r17
    2052:	08 95       	ret

00002054 <lcd12864_write_float>:

void lcd12864_write_float(float v,uint8_t numd){
    2054:	8f 92       	push	r8
    2056:	9f 92       	push	r9
    2058:	af 92       	push	r10
    205a:	bf 92       	push	r11
    205c:	cf 92       	push	r12
    205e:	df 92       	push	r13
    2060:	ef 92       	push	r14
    2062:	ff 92       	push	r15
    2064:	cf 93       	push	r28
    2066:	4b 01       	movw	r8, r22
    2068:	5c 01       	movw	r10, r24
    206a:	c4 2f       	mov	r28, r20
	char *str=" ";
	uint8_t i;
	itoa((int)v,str,10);
    206c:	86 d3       	rcall	.+1804   	; 0x277a <__fixsfsi>
    206e:	6b 01       	movw	r12, r22
    2070:	7c 01       	movw	r14, r24
    } else if (__radix < 2 || __radix > 36) {
	*__s = 0;
	return __s;
    } else {
	extern char *__itoa_ncheck (int, char *, unsigned char);
	return __itoa_ncheck (__val, __s, __radix);
    2072:	4a e0       	ldi	r20, 0x0A	; 10
    2074:	6b e1       	ldi	r22, 0x1B	; 27
    2076:	76 e0       	ldi	r23, 0x06	; 6
    2078:	c6 01       	movw	r24, r12
    207a:	de d4       	rcall	.+2492   	; 0x2a38 <__itoa_ncheck>
	lcd12864_write_str(str);
    207c:	8b e1       	ldi	r24, 0x1B	; 27
    207e:	96 e0       	ldi	r25, 0x06	; 6
    2080:	d5 df       	rcall	.-86     	; 0x202c <lcd12864_write_str>
	if(numd==0) return;
    2082:	cc 23       	and	r28, r28
    2084:	01 f1       	breq	.+64     	; 0x20c6 <lcd12864_write_float+0x72>
	
}

void lcd12864_write_char(char data){

		lcd12864_send_data(data);
    2086:	8e e2       	ldi	r24, 0x2E	; 46
    2088:	8c df       	rcall	.-232    	; 0x1fa2 <lcd12864_send_data>
	uint8_t i;
	itoa((int)v,str,10);
	lcd12864_write_str(str);
	if(numd==0) return;
	lcd12864_write_char('.');
	float digi = v - (int)v;
    208a:	b6 01       	movw	r22, r12
    208c:	88 27       	eor	r24, r24
    208e:	77 fd       	sbrc	r23, 7
    2090:	80 95       	com	r24
    2092:	98 2f       	mov	r25, r24
    2094:	a5 d3       	rcall	.+1866   	; 0x27e0 <__floatsisf>
    2096:	9b 01       	movw	r18, r22
    2098:	ac 01       	movw	r20, r24
    209a:	c5 01       	movw	r24, r10
    209c:	b4 01       	movw	r22, r8
    209e:	9c d2       	rcall	.+1336   	; 0x25d8 <__subsf3>
	for(i=0;i<numd;i++)
    20a0:	f1 2c       	mov	r15, r1
		digi*=10;
    20a2:	20 e0       	ldi	r18, 0x00	; 0
    20a4:	30 e0       	ldi	r19, 0x00	; 0
    20a6:	40 e2       	ldi	r20, 0x20	; 32
    20a8:	51 e4       	ldi	r21, 0x41	; 65
    20aa:	4e d4       	rcall	.+2204   	; 0x2948 <__mulsf3>
	itoa((int)v,str,10);
	lcd12864_write_str(str);
	if(numd==0) return;
	lcd12864_write_char('.');
	float digi = v - (int)v;
	for(i=0;i<numd;i++)
    20ac:	f3 94       	inc	r15
    20ae:	fc 12       	cpse	r15, r28
    20b0:	f8 cf       	rjmp	.-16     	; 0x20a2 <lcd12864_write_float+0x4e>
		digi*=10;
	itoa((int)digi,str,10);
    20b2:	63 d3       	rcall	.+1734   	; 0x277a <__fixsfsi>
    20b4:	dc 01       	movw	r26, r24
    20b6:	cb 01       	movw	r24, r22
    20b8:	4a e0       	ldi	r20, 0x0A	; 10
    20ba:	6b e1       	ldi	r22, 0x1B	; 27
    20bc:	76 e0       	ldi	r23, 0x06	; 6
    20be:	bc d4       	rcall	.+2424   	; 0x2a38 <__itoa_ncheck>
	lcd12864_write_str(str);
    20c0:	8b e1       	ldi	r24, 0x1B	; 27
    20c2:	96 e0       	ldi	r25, 0x06	; 6
    20c4:	b3 df       	rcall	.-154    	; 0x202c <lcd12864_write_str>
}
    20c6:	cf 91       	pop	r28
    20c8:	ff 90       	pop	r15
    20ca:	ef 90       	pop	r14
    20cc:	df 90       	pop	r13
    20ce:	cf 90       	pop	r12
    20d0:	bf 90       	pop	r11
    20d2:	af 90       	pop	r10
    20d4:	9f 90       	pop	r9
    20d6:	8f 90       	pop	r8
    20d8:	08 95       	ret

000020da <lcd12864_write_int>:
    20da:	4a e0       	ldi	r20, 0x0A	; 10
    20dc:	68 e1       	ldi	r22, 0x18	; 24
    20de:	76 e0       	ldi	r23, 0x06	; 6
    20e0:	ab d4       	rcall	.+2390   	; 0x2a38 <__itoa_ncheck>


void lcd12864_write_int(int v){
	char *str="    ";
	itoa(v,str,10);
	lcd12864_write_str(str);
    20e2:	88 e1       	ldi	r24, 0x18	; 24
    20e4:	96 e0       	ldi	r25, 0x06	; 6
    20e6:	a2 cf       	rjmp	.-188    	; 0x202c <lcd12864_write_str>
    20e8:	08 95       	ret

000020ea <lcd12864_SetWhite>:
}



void lcd12864_SetWhite(uint8_t x, uint8_t y, uint8_t width, uint8_t clear){
    20ea:	df 92       	push	r13
    20ec:	ef 92       	push	r14
    20ee:	ff 92       	push	r15
    20f0:	0f 93       	push	r16
    20f2:	1f 93       	push	r17
    20f4:	cf 93       	push	r28
    20f6:	df 93       	push	r29
    20f8:	d8 2f       	mov	r29, r24
    20fa:	14 2f       	mov	r17, r20
    20fc:	65 30       	cpi	r22, 0x05	; 5
    20fe:	08 f0       	brcs	.+2      	; 0x2102 <lcd12864_SetWhite+0x18>
    2100:	64 e0       	ldi	r22, 0x04	; 4
	
	uint8_t i,j;
	uint8_t start_x=0, start_y=0;
	uint8_t real_width=0;
	if(y>4) y=4; if(y<1)y=1;
    2102:	66 23       	and	r22, r22
    2104:	09 f4       	brne	.+2      	; 0x2108 <lcd12864_SetWhite+0x1e>
    2106:	b6 c0       	rjmp	.+364    	; 0x2274 <lcd12864_SetWhite+0x18a>
	uint8_t block;
	if(clear) block=0x00; 
    2108:	c1 e0       	ldi	r28, 0x01	; 1
    210a:	21 11       	cpse	r18, r1
    210c:	c0 e0       	ldi	r28, 0x00	; 0
    210e:	c1 95       	neg	r28
	else block = 0xff;
	
	switch(y){
    2110:	62 30       	cpi	r22, 0x02	; 2
    2112:	99 f0       	breq	.+38     	; 0x213a <lcd12864_SetWhite+0x50>
    2114:	18 f4       	brcc	.+6      	; 0x211c <lcd12864_SetWhite+0x32>
    2116:	61 30       	cpi	r22, 0x01	; 1
    2118:	91 f5       	brne	.+100    	; 0x217e <lcd12864_SetWhite+0x94>
    211a:	05 c0       	rjmp	.+10     	; 0x2126 <lcd12864_SetWhite+0x3c>
    211c:	63 30       	cpi	r22, 0x03	; 3
    211e:	c1 f0       	breq	.+48     	; 0x2150 <lcd12864_SetWhite+0x66>
    2120:	64 30       	cpi	r22, 0x04	; 4
    2122:	09 f1       	breq	.+66     	; 0x2166 <lcd12864_SetWhite+0x7c>
    2124:	2c c0       	rjmp	.+88     	; 0x217e <lcd12864_SetWhite+0x94>
		case 1:
			start_x = 0x80+x/2;
    2126:	8d 2f       	mov	r24, r29
    2128:	86 95       	lsr	r24
    212a:	68 94       	set
    212c:	ff 24       	eor	r15, r15
    212e:	f7 f8       	bld	r15, 7
    2130:	f8 0e       	add	r15, r24
			start_y = 0x80;
    2132:	68 94       	set
    2134:	ee 24       	eor	r14, r14
    2136:	e7 f8       	bld	r14, 7
			break;
    2138:	24 c0       	rjmp	.+72     	; 0x2182 <lcd12864_SetWhite+0x98>
		case 2:
			start_x = 0x80+x/2;
    213a:	8d 2f       	mov	r24, r29
    213c:	86 95       	lsr	r24
    213e:	68 94       	set
    2140:	ff 24       	eor	r15, r15
    2142:	f7 f8       	bld	r15, 7
    2144:	f8 0e       	add	r15, r24
			start_y=0x90;
    2146:	0f 2e       	mov	r0, r31
    2148:	f0 e9       	ldi	r31, 0x90	; 144
    214a:	ef 2e       	mov	r14, r31
    214c:	f0 2d       	mov	r31, r0
			break;
    214e:	19 c0       	rjmp	.+50     	; 0x2182 <lcd12864_SetWhite+0x98>
		case 3:
			start_x = 0x88+x/2;
    2150:	8d 2f       	mov	r24, r29
    2152:	86 95       	lsr	r24
    2154:	0f 2e       	mov	r0, r31
    2156:	f8 e8       	ldi	r31, 0x88	; 136
    2158:	ff 2e       	mov	r15, r31
    215a:	f0 2d       	mov	r31, r0
    215c:	f8 0e       	add	r15, r24
			start_y = 0x80;
    215e:	68 94       	set
    2160:	ee 24       	eor	r14, r14
    2162:	e7 f8       	bld	r14, 7
			break;
    2164:	0e c0       	rjmp	.+28     	; 0x2182 <lcd12864_SetWhite+0x98>
		case 4:
			start_x = 0x88+x/2;
    2166:	8d 2f       	mov	r24, r29
    2168:	86 95       	lsr	r24
    216a:	0f 2e       	mov	r0, r31
    216c:	f8 e8       	ldi	r31, 0x88	; 136
    216e:	ff 2e       	mov	r15, r31
    2170:	f0 2d       	mov	r31, r0
    2172:	f8 0e       	add	r15, r24
			start_y = 0x90;
    2174:	0f 2e       	mov	r0, r31
    2176:	f0 e9       	ldi	r31, 0x90	; 144
    2178:	ef 2e       	mov	r14, r31
    217a:	f0 2d       	mov	r31, r0
			break;
    217c:	02 c0       	rjmp	.+4      	; 0x2182 <lcd12864_SetWhite+0x98>


void lcd12864_SetWhite(uint8_t x, uint8_t y, uint8_t width, uint8_t clear){
	
	uint8_t i,j;
	uint8_t start_x=0, start_y=0;
    217e:	e1 2c       	mov	r14, r1
    2180:	f1 2c       	mov	r15, r1
			break;
		default:
			break;
	}
	
	lcd12864_send_cmd(0x34);
    2182:	84 e3       	ldi	r24, 0x34	; 52
    2184:	1e df       	rcall	.-452    	; 0x1fc2 <lcd12864_send_cmd>
	
	if(x%2==0 && width%2==0){
    2186:	8d 2f       	mov	r24, r29
    2188:	81 70       	andi	r24, 0x01	; 1
    218a:	91 2f       	mov	r25, r17
    218c:	91 70       	andi	r25, 0x01	; 1
    218e:	d1 2b       	or	r29, r17
    2190:	d0 fd       	sbrc	r29, 0
    2192:	16 c0       	rjmp	.+44     	; 0x21c0 <lcd12864_SetWhite+0xd6>
		real_width = width/2;
    2194:	16 95       	lsr	r17
		for(i=0;i<16;i++){
    2196:	00 e0       	ldi	r16, 0x00	; 0
			lcd12864_send_cmd(start_y+i);
			lcd12864_send_cmd(start_x);
			for(j=0;j<real_width;j++){
    2198:	d1 2c       	mov	r13, r1
	lcd12864_send_cmd(0x34);
	
	if(x%2==0 && width%2==0){
		real_width = width/2;
		for(i=0;i<16;i++){
			lcd12864_send_cmd(start_y+i);
    219a:	80 2f       	mov	r24, r16
    219c:	8e 0d       	add	r24, r14
    219e:	11 df       	rcall	.-478    	; 0x1fc2 <lcd12864_send_cmd>
			lcd12864_send_cmd(start_x);
    21a0:	8f 2d       	mov	r24, r15
    21a2:	0f df       	rcall	.-482    	; 0x1fc2 <lcd12864_send_cmd>
			for(j=0;j<real_width;j++){
    21a4:	11 23       	and	r17, r17
    21a6:	41 f0       	breq	.+16     	; 0x21b8 <lcd12864_SetWhite+0xce>
    21a8:	dd 2d       	mov	r29, r13
				lcd12864_send_data(block);
    21aa:	8c 2f       	mov	r24, r28
    21ac:	fa de       	rcall	.-524    	; 0x1fa2 <lcd12864_send_data>
				lcd12864_send_data(block);
    21ae:	8c 2f       	mov	r24, r28
    21b0:	f8 de       	rcall	.-528    	; 0x1fa2 <lcd12864_send_data>
	if(x%2==0 && width%2==0){
		real_width = width/2;
		for(i=0;i<16;i++){
			lcd12864_send_cmd(start_y+i);
			lcd12864_send_cmd(start_x);
			for(j=0;j<real_width;j++){
    21b2:	df 5f       	subi	r29, 0xFF	; 255
    21b4:	d1 13       	cpse	r29, r17
    21b6:	f9 cf       	rjmp	.-14     	; 0x21aa <lcd12864_SetWhite+0xc0>
	
	lcd12864_send_cmd(0x34);
	
	if(x%2==0 && width%2==0){
		real_width = width/2;
		for(i=0;i<16;i++){
    21b8:	0f 5f       	subi	r16, 0xFF	; 255
    21ba:	00 31       	cpi	r16, 0x10	; 16
    21bc:	71 f7       	brne	.-36     	; 0x219a <lcd12864_SetWhite+0xb0>
    21be:	57 c0       	rjmp	.+174    	; 0x226e <lcd12864_SetWhite+0x184>
				lcd12864_send_data(block);
				lcd12864_send_data(block);
			}
		}
	}
	else if(x%2==0 && width%2!=0){
    21c0:	81 11       	cpse	r24, r1
    21c2:	1d c0       	rjmp	.+58     	; 0x21fe <lcd12864_SetWhite+0x114>
    21c4:	99 23       	and	r25, r25
    21c6:	09 f4       	brne	.+2      	; 0x21ca <lcd12864_SetWhite+0xe0>
    21c8:	52 c0       	rjmp	.+164    	; 0x226e <lcd12864_SetWhite+0x184>
		real_width = width/2;
    21ca:	16 95       	lsr	r17
		for(i=0;i<16;i++){
    21cc:	00 e0       	ldi	r16, 0x00	; 0
			lcd12864_send_cmd(start_y+i);
			lcd12864_send_cmd(start_x);
			for(j=0;j<real_width;j++){
    21ce:	d1 2c       	mov	r13, r1
		}
	}
	else if(x%2==0 && width%2!=0){
		real_width = width/2;
		for(i=0;i<16;i++){
			lcd12864_send_cmd(start_y+i);
    21d0:	80 2f       	mov	r24, r16
    21d2:	8e 0d       	add	r24, r14
    21d4:	f6 de       	rcall	.-532    	; 0x1fc2 <lcd12864_send_cmd>
			lcd12864_send_cmd(start_x);
    21d6:	8f 2d       	mov	r24, r15
    21d8:	f4 de       	rcall	.-536    	; 0x1fc2 <lcd12864_send_cmd>
			for(j=0;j<real_width;j++){
    21da:	11 23       	and	r17, r17
    21dc:	41 f0       	breq	.+16     	; 0x21ee <lcd12864_SetWhite+0x104>
    21de:	dd 2d       	mov	r29, r13
				lcd12864_send_data(block);
    21e0:	8c 2f       	mov	r24, r28
    21e2:	df de       	rcall	.-578    	; 0x1fa2 <lcd12864_send_data>
				lcd12864_send_data(block);
    21e4:	8c 2f       	mov	r24, r28
    21e6:	dd de       	rcall	.-582    	; 0x1fa2 <lcd12864_send_data>
	else if(x%2==0 && width%2!=0){
		real_width = width/2;
		for(i=0;i<16;i++){
			lcd12864_send_cmd(start_y+i);
			lcd12864_send_cmd(start_x);
			for(j=0;j<real_width;j++){
    21e8:	df 5f       	subi	r29, 0xFF	; 255
    21ea:	d1 13       	cpse	r29, r17
    21ec:	f9 cf       	rjmp	.-14     	; 0x21e0 <lcd12864_SetWhite+0xf6>
				lcd12864_send_data(block);
				lcd12864_send_data(block);
			}
			lcd12864_send_data(block);
    21ee:	8c 2f       	mov	r24, r28
    21f0:	d8 de       	rcall	.-592    	; 0x1fa2 <lcd12864_send_data>
			lcd12864_send_data(0x00);
    21f2:	8d 2d       	mov	r24, r13
    21f4:	d6 de       	rcall	.-596    	; 0x1fa2 <lcd12864_send_data>
			}
		}
	}
	else if(x%2==0 && width%2!=0){
		real_width = width/2;
		for(i=0;i<16;i++){
    21f6:	0f 5f       	subi	r16, 0xFF	; 255
    21f8:	00 31       	cpi	r16, 0x10	; 16
    21fa:	51 f7       	brne	.-44     	; 0x21d0 <lcd12864_SetWhite+0xe6>
    21fc:	38 c0       	rjmp	.+112    	; 0x226e <lcd12864_SetWhite+0x184>
			}
			lcd12864_send_data(block);
			lcd12864_send_data(0x00);
		}
	}
	else if(x%2!=0 && width%2==0){
    21fe:	91 11       	cpse	r25, r1
    2200:	1e c0       	rjmp	.+60     	; 0x223e <lcd12864_SetWhite+0x154>
		real_width = width/2-1;
    2202:	16 95       	lsr	r17
    2204:	11 50       	subi	r17, 0x01	; 1
		for(i=0;i<16;i++){
    2206:	00 e0       	ldi	r16, 0x00	; 0
			lcd12864_send_cmd(start_y+i);
    2208:	80 2f       	mov	r24, r16
    220a:	8e 0d       	add	r24, r14
    220c:	da de       	rcall	.-588    	; 0x1fc2 <lcd12864_send_cmd>
			lcd12864_send_cmd(start_x);
    220e:	8f 2d       	mov	r24, r15
    2210:	d8 de       	rcall	.-592    	; 0x1fc2 <lcd12864_send_cmd>
			lcd12864_send_data(0x00);
    2212:	80 e0       	ldi	r24, 0x00	; 0
    2214:	c6 de       	rcall	.-628    	; 0x1fa2 <lcd12864_send_data>
			lcd12864_send_data(block);
    2216:	8c 2f       	mov	r24, r28
    2218:	c4 de       	rcall	.-632    	; 0x1fa2 <lcd12864_send_data>
			for(j=0;j<real_width;j++){
    221a:	11 23       	and	r17, r17
    221c:	41 f0       	breq	.+16     	; 0x222e <lcd12864_SetWhite+0x144>
    221e:	d0 e0       	ldi	r29, 0x00	; 0
				lcd12864_send_data(block);
    2220:	8c 2f       	mov	r24, r28
    2222:	bf de       	rcall	.-642    	; 0x1fa2 <lcd12864_send_data>
				lcd12864_send_data(block);
    2224:	8c 2f       	mov	r24, r28
    2226:	bd de       	rcall	.-646    	; 0x1fa2 <lcd12864_send_data>
		for(i=0;i<16;i++){
			lcd12864_send_cmd(start_y+i);
			lcd12864_send_cmd(start_x);
			lcd12864_send_data(0x00);
			lcd12864_send_data(block);
			for(j=0;j<real_width;j++){
    2228:	df 5f       	subi	r29, 0xFF	; 255
    222a:	1d 13       	cpse	r17, r29
    222c:	f9 cf       	rjmp	.-14     	; 0x2220 <lcd12864_SetWhite+0x136>
				lcd12864_send_data(block);
				lcd12864_send_data(block);
			}
			lcd12864_send_data(block);
    222e:	8c 2f       	mov	r24, r28
    2230:	b8 de       	rcall	.-656    	; 0x1fa2 <lcd12864_send_data>
			lcd12864_send_data(0x00);
    2232:	80 e0       	ldi	r24, 0x00	; 0
    2234:	b6 de       	rcall	.-660    	; 0x1fa2 <lcd12864_send_data>
			lcd12864_send_data(0x00);
		}
	}
	else if(x%2!=0 && width%2==0){
		real_width = width/2-1;
		for(i=0;i<16;i++){
    2236:	0f 5f       	subi	r16, 0xFF	; 255
    2238:	00 31       	cpi	r16, 0x10	; 16
    223a:	31 f7       	brne	.-52     	; 0x2208 <lcd12864_SetWhite+0x11e>
    223c:	18 c0       	rjmp	.+48     	; 0x226e <lcd12864_SetWhite+0x184>
			lcd12864_send_data(0x00);
		}
		
	}
	else if(x%2!=0 && width%2!=0){
		real_width = width/2;
    223e:	16 95       	lsr	r17
		for(i=0;i<16;i++){
    2240:	00 e0       	ldi	r16, 0x00	; 0
			lcd12864_send_cmd(start_y+i);
    2242:	80 2f       	mov	r24, r16
    2244:	8e 0d       	add	r24, r14
    2246:	bd de       	rcall	.-646    	; 0x1fc2 <lcd12864_send_cmd>
			lcd12864_send_cmd(start_x);
    2248:	8f 2d       	mov	r24, r15
    224a:	bb de       	rcall	.-650    	; 0x1fc2 <lcd12864_send_cmd>
			lcd12864_send_data(0x00);
    224c:	80 e0       	ldi	r24, 0x00	; 0
    224e:	a9 de       	rcall	.-686    	; 0x1fa2 <lcd12864_send_data>
			lcd12864_send_data(block);
    2250:	8c 2f       	mov	r24, r28
    2252:	a7 de       	rcall	.-690    	; 0x1fa2 <lcd12864_send_data>
			for(j=0;j<real_width;j++){
    2254:	11 23       	and	r17, r17
    2256:	41 f0       	breq	.+16     	; 0x2268 <lcd12864_SetWhite+0x17e>
    2258:	d0 e0       	ldi	r29, 0x00	; 0
				lcd12864_send_data(block);
    225a:	8c 2f       	mov	r24, r28
    225c:	a2 de       	rcall	.-700    	; 0x1fa2 <lcd12864_send_data>
				lcd12864_send_data(block);
    225e:	8c 2f       	mov	r24, r28
    2260:	a0 de       	rcall	.-704    	; 0x1fa2 <lcd12864_send_data>
		for(i=0;i<16;i++){
			lcd12864_send_cmd(start_y+i);
			lcd12864_send_cmd(start_x);
			lcd12864_send_data(0x00);
			lcd12864_send_data(block);
			for(j=0;j<real_width;j++){
    2262:	df 5f       	subi	r29, 0xFF	; 255
    2264:	d1 13       	cpse	r29, r17
    2266:	f9 cf       	rjmp	.-14     	; 0x225a <lcd12864_SetWhite+0x170>
		}
		
	}
	else if(x%2!=0 && width%2!=0){
		real_width = width/2;
		for(i=0;i<16;i++){
    2268:	0f 5f       	subi	r16, 0xFF	; 255
    226a:	00 31       	cpi	r16, 0x10	; 16
    226c:	51 f7       	brne	.-44     	; 0x2242 <lcd12864_SetWhite+0x158>
			}
			
		}
	}
	
	lcd12864_send_cmd(0x30);		
    226e:	80 e3       	ldi	r24, 0x30	; 48
    2270:	a8 de       	rcall	.-688    	; 0x1fc2 <lcd12864_send_cmd>
    2272:	05 c0       	rjmp	.+10     	; 0x227e <lcd12864_SetWhite+0x194>
	uint8_t i,j;
	uint8_t start_x=0, start_y=0;
	uint8_t real_width=0;
	if(y>4) y=4; if(y<1)y=1;
	uint8_t block;
	if(clear) block=0x00; 
    2274:	c1 e0       	ldi	r28, 0x01	; 1
    2276:	21 11       	cpse	r18, r1
    2278:	c0 e0       	ldi	r28, 0x00	; 0
    227a:	c1 95       	neg	r28
    227c:	54 cf       	rjmp	.-344    	; 0x2126 <lcd12864_SetWhite+0x3c>
			
		}
	}
	
	lcd12864_send_cmd(0x30);		
}
    227e:	df 91       	pop	r29
    2280:	cf 91       	pop	r28
    2282:	1f 91       	pop	r17
    2284:	0f 91       	pop	r16
    2286:	ff 90       	pop	r15
    2288:	ef 90       	pop	r14
    228a:	df 90       	pop	r13
    228c:	08 95       	ret

0000228e <lcd12864_clrGDRAM>:

void lcd12864_clrGDRAM(void){
    228e:	1f 93       	push	r17
    2290:	cf 93       	push	r28
    2292:	df 93       	push	r29
	uint8_t i,j;
	lcd12864_send_cmd(0x34);
    2294:	84 e3       	ldi	r24, 0x34	; 52
    2296:	95 de       	rcall	.-726    	; 0x1fc2 <lcd12864_send_cmd>
    2298:	d0 e8       	ldi	r29, 0x80	; 128
	for(i=0;i<16;i++){
		lcd12864_send_cmd(0x80+i);
		lcd12864_send_cmd(0x80);
    229a:	10 e1       	ldi	r17, 0x10	; 16

void lcd12864_clrGDRAM(void){
	uint8_t i,j;
	lcd12864_send_cmd(0x34);
	for(i=0;i<16;i++){
		lcd12864_send_cmd(0x80+i);
    229c:	8d 2f       	mov	r24, r29
    229e:	91 de       	rcall	.-734    	; 0x1fc2 <lcd12864_send_cmd>
		lcd12864_send_cmd(0x80);
    22a0:	80 e8       	ldi	r24, 0x80	; 128
    22a2:	8f de       	rcall	.-738    	; 0x1fc2 <lcd12864_send_cmd>
    22a4:	c1 2f       	mov	r28, r17
		for(j=0;j<16;j++){
			lcd12864_send_data(0x00);
    22a6:	80 e0       	ldi	r24, 0x00	; 0
    22a8:	7c de       	rcall	.-776    	; 0x1fa2 <lcd12864_send_data>
			lcd12864_send_data(0x00);
    22aa:	80 e0       	ldi	r24, 0x00	; 0
    22ac:	7a de       	rcall	.-780    	; 0x1fa2 <lcd12864_send_data>
    22ae:	c1 50       	subi	r28, 0x01	; 1
	uint8_t i,j;
	lcd12864_send_cmd(0x34);
	for(i=0;i<16;i++){
		lcd12864_send_cmd(0x80+i);
		lcd12864_send_cmd(0x80);
		for(j=0;j<16;j++){
    22b0:	d1 f7       	brne	.-12     	; 0x22a6 <lcd12864_clrGDRAM+0x18>
    22b2:	df 5f       	subi	r29, 0xFF	; 255
}

void lcd12864_clrGDRAM(void){
	uint8_t i,j;
	lcd12864_send_cmd(0x34);
	for(i=0;i<16;i++){
    22b4:	d0 39       	cpi	r29, 0x90	; 144
    22b6:	91 f7       	brne	.-28     	; 0x229c <lcd12864_clrGDRAM+0xe>
			lcd12864_send_data(0x00);
		}
	}
	for(i=0;i<16;i++){
		lcd12864_send_cmd(0x90+i);
		lcd12864_send_cmd(0x80);
    22b8:	10 e1       	ldi	r17, 0x10	; 16
			lcd12864_send_data(0x00);
			lcd12864_send_data(0x00);
		}
	}
	for(i=0;i<16;i++){
		lcd12864_send_cmd(0x90+i);
    22ba:	8d 2f       	mov	r24, r29
    22bc:	82 de       	rcall	.-764    	; 0x1fc2 <lcd12864_send_cmd>
		lcd12864_send_cmd(0x80);
    22be:	80 e8       	ldi	r24, 0x80	; 128
    22c0:	80 de       	rcall	.-768    	; 0x1fc2 <lcd12864_send_cmd>
    22c2:	c1 2f       	mov	r28, r17
		for(j=0;j<16;j++){
			lcd12864_send_data(0x00);
    22c4:	80 e0       	ldi	r24, 0x00	; 0
    22c6:	6d de       	rcall	.-806    	; 0x1fa2 <lcd12864_send_data>
			lcd12864_send_data(0x00);
    22c8:	80 e0       	ldi	r24, 0x00	; 0
    22ca:	6b de       	rcall	.-810    	; 0x1fa2 <lcd12864_send_data>
    22cc:	c1 50       	subi	r28, 0x01	; 1
		}
	}
	for(i=0;i<16;i++){
		lcd12864_send_cmd(0x90+i);
		lcd12864_send_cmd(0x80);
		for(j=0;j<16;j++){
    22ce:	d1 f7       	brne	.-12     	; 0x22c4 <lcd12864_clrGDRAM+0x36>
    22d0:	df 5f       	subi	r29, 0xFF	; 255
		for(j=0;j<16;j++){
			lcd12864_send_data(0x00);
			lcd12864_send_data(0x00);
		}
	}
	for(i=0;i<16;i++){
    22d2:	d0 3a       	cpi	r29, 0xA0	; 160
    22d4:	91 f7       	brne	.-28     	; 0x22ba <lcd12864_clrGDRAM+0x2c>
    22d6:	d0 e8       	ldi	r29, 0x80	; 128
			lcd12864_send_data(0x00);
		}
	}
	for(i=0;i<16;i++){
		lcd12864_send_cmd(0x80+i);
		lcd12864_send_cmd(0x88);
    22d8:	10 e1       	ldi	r17, 0x10	; 16
			lcd12864_send_data(0x00);
			lcd12864_send_data(0x00);
		}
	}
	for(i=0;i<16;i++){
		lcd12864_send_cmd(0x80+i);
    22da:	8d 2f       	mov	r24, r29
    22dc:	72 de       	rcall	.-796    	; 0x1fc2 <lcd12864_send_cmd>
		lcd12864_send_cmd(0x88);
    22de:	88 e8       	ldi	r24, 0x88	; 136
    22e0:	70 de       	rcall	.-800    	; 0x1fc2 <lcd12864_send_cmd>
    22e2:	c1 2f       	mov	r28, r17
		for(j=0;j<16;j++){
			lcd12864_send_data(0x00);
    22e4:	80 e0       	ldi	r24, 0x00	; 0
    22e6:	5d de       	rcall	.-838    	; 0x1fa2 <lcd12864_send_data>
			lcd12864_send_data(0x00);
    22e8:	80 e0       	ldi	r24, 0x00	; 0
    22ea:	5b de       	rcall	.-842    	; 0x1fa2 <lcd12864_send_data>
    22ec:	c1 50       	subi	r28, 0x01	; 1
		}
	}
	for(i=0;i<16;i++){
		lcd12864_send_cmd(0x80+i);
		lcd12864_send_cmd(0x88);
		for(j=0;j<16;j++){
    22ee:	d1 f7       	brne	.-12     	; 0x22e4 <lcd12864_clrGDRAM+0x56>
    22f0:	df 5f       	subi	r29, 0xFF	; 255
		for(j=0;j<16;j++){
			lcd12864_send_data(0x00);
			lcd12864_send_data(0x00);
		}
	}
	for(i=0;i<16;i++){
    22f2:	d0 39       	cpi	r29, 0x90	; 144
    22f4:	91 f7       	brne	.-28     	; 0x22da <lcd12864_clrGDRAM+0x4c>
			lcd12864_send_data(0x00);
		}
	}
	for(i=0;i<16;i++){
		lcd12864_send_cmd(0x90+i);
		lcd12864_send_cmd(0x88);
    22f6:	10 e1       	ldi	r17, 0x10	; 16
			lcd12864_send_data(0x00);
			lcd12864_send_data(0x00);
		}
	}
	for(i=0;i<16;i++){
		lcd12864_send_cmd(0x90+i);
    22f8:	8d 2f       	mov	r24, r29
    22fa:	63 de       	rcall	.-826    	; 0x1fc2 <lcd12864_send_cmd>
		lcd12864_send_cmd(0x88);
    22fc:	88 e8       	ldi	r24, 0x88	; 136
    22fe:	61 de       	rcall	.-830    	; 0x1fc2 <lcd12864_send_cmd>
    2300:	c1 2f       	mov	r28, r17
		for(j=0;j<16;j++){
			lcd12864_send_data(0x00);
    2302:	80 e0       	ldi	r24, 0x00	; 0
    2304:	4e de       	rcall	.-868    	; 0x1fa2 <lcd12864_send_data>
			lcd12864_send_data(0x00);
    2306:	80 e0       	ldi	r24, 0x00	; 0
    2308:	4c de       	rcall	.-872    	; 0x1fa2 <lcd12864_send_data>
    230a:	c1 50       	subi	r28, 0x01	; 1
		}
	}
	for(i=0;i<16;i++){
		lcd12864_send_cmd(0x90+i);
		lcd12864_send_cmd(0x88);
		for(j=0;j<16;j++){
    230c:	d1 f7       	brne	.-12     	; 0x2302 <lcd12864_clrGDRAM+0x74>
    230e:	df 5f       	subi	r29, 0xFF	; 255
		for(j=0;j<16;j++){
			lcd12864_send_data(0x00);
			lcd12864_send_data(0x00);
		}
	}
	for(i=0;i<16;i++){
    2310:	d0 3a       	cpi	r29, 0xA0	; 160
    2312:	91 f7       	brne	.-28     	; 0x22f8 <lcd12864_clrGDRAM+0x6a>
			lcd12864_send_data(0x00);
			lcd12864_send_data(0x00);
		}
	}
	
	lcd12864_send_cmd(0x30);
    2314:	80 e3       	ldi	r24, 0x30	; 48
    2316:	55 de       	rcall	.-854    	; 0x1fc2 <lcd12864_send_cmd>
}
    2318:	df 91       	pop	r29
    231a:	cf 91       	pop	r28
    231c:	1f 91       	pop	r17
    231e:	08 95       	ret

00002320 <lcd12864_init>:
#include <stdlib.h>
#define DELAY 150


void lcd12864_init(void){
	SWITCH_LCD_IO_OUT;
    2320:	82 b1       	in	r24, 0x02	; 2
    2322:	88 6f       	ori	r24, 0xF8	; 248
    2324:	82 b9       	out	0x02, r24	; 2
	LCD12864_RESET_0;
    2326:	1d 98       	cbi	0x03, 5	; 3
    2328:	80 e0       	ldi	r24, 0x00	; 0
    232a:	90 e0       	ldi	r25, 0x00	; 0
    232c:	01 96       	adiw	r24, 0x01	; 1
    232e:	81 15       	cp	r24, r1
    2330:	20 ef       	ldi	r18, 0xF0	; 240
    2332:	92 07       	cpc	r25, r18
    2334:	d9 f7       	brne	.-10     	; 0x232c <lcd12864_init+0xc>
	delay_ms(50);
	LCD12864_RESET;
    2336:	1d 9a       	sbi	0x03, 5	; 3
	LCD12864_BACKLIGHT_ENABLE;
    2338:	1f 98       	cbi	0x03, 7	; 3
    233a:	80 e0       	ldi	r24, 0x00	; 0
    233c:	90 e0       	ldi	r25, 0x00	; 0
    233e:	01 96       	adiw	r24, 0x01	; 1
    2340:	81 15       	cp	r24, r1
    2342:	20 e3       	ldi	r18, 0x30	; 48
    2344:	92 07       	cpc	r25, r18
    2346:	d9 f7       	brne	.-10     	; 0x233e <lcd12864_init+0x1e>
	delay_ms(10);
	lcd12864_send_cmd(0x30);
    2348:	80 e3       	ldi	r24, 0x30	; 48
    234a:	3b de       	rcall	.-906    	; 0x1fc2 <lcd12864_send_cmd>
	lcd12864_send_cmd(0x0C);
    234c:	8c e0       	ldi	r24, 0x0C	; 12
    234e:	39 de       	rcall	.-910    	; 0x1fc2 <lcd12864_send_cmd>
	lcd12864_send_cmd(0x01);
    2350:	81 e0       	ldi	r24, 0x01	; 1
    2352:	37 de       	rcall	.-914    	; 0x1fc2 <lcd12864_send_cmd>
	lcd12864_send_cmd(0x02);
    2354:	82 e0       	ldi	r24, 0x02	; 2
    2356:	35 de       	rcall	.-918    	; 0x1fc2 <lcd12864_send_cmd>

	lcd12864_send_cmd(0x80);
    2358:	80 e8       	ldi	r24, 0x80	; 128
    235a:	33 de       	rcall	.-922    	; 0x1fc2 <lcd12864_send_cmd>

	lcd12864_send_cmd(0x04);
    235c:	84 e0       	ldi	r24, 0x04	; 4
    235e:	31 de       	rcall	.-926    	; 0x1fc2 <lcd12864_send_cmd>
	lcd12864_send_cmd(0x0C);
    2360:	8c e0       	ldi	r24, 0x0C	; 12
    2362:	2f de       	rcall	.-930    	; 0x1fc2 <lcd12864_send_cmd>
	lcd12864_clrGDRAM();
    2364:	94 cf       	rjmp	.-216    	; 0x228e <lcd12864_clrGDRAM>
    2366:	08 95       	ret

00002368 <lcd12864_Focus>:
	
	lcd12864_send_cmd(0x30);
}


void lcd12864_Focus(uint8_t menu, uint8_t index, uint8_t white){
    2368:	1f 93       	push	r17
    236a:	cf 93       	push	r28
    236c:	df 93       	push	r29
    236e:	c8 2f       	mov	r28, r24
    2370:	16 2f       	mov	r17, r22
    2372:	d4 2f       	mov	r29, r20
	static uint8_t o_menu=0xff,o_white=0xff;
	if(menu != o_menu){
    2374:	80 91 13 04 	lds	r24, 0x0413
    2378:	c8 17       	cp	r28, r24
    237a:	31 f1       	breq	.+76     	; 0x23c8 <lcd12864_Focus+0x60>
	switch(menu){
    237c:	cc 23       	and	r28, r28
    237e:	19 f0       	breq	.+6      	; 0x2386 <lcd12864_Focus+0x1e>
    2380:	c1 30       	cpi	r28, 0x01	; 1
    2382:	89 f0       	breq	.+34     	; 0x23a6 <lcd12864_Focus+0x3e>
    2384:	1f c0       	rjmp	.+62     	; 0x23c4 <lcd12864_Focus+0x5c>
		case 0:
			lcd12864_SetWhite(0,4,4,0);
    2386:	20 e0       	ldi	r18, 0x00	; 0
    2388:	44 e0       	ldi	r20, 0x04	; 4
    238a:	64 e0       	ldi	r22, 0x04	; 4
    238c:	80 e0       	ldi	r24, 0x00	; 0
    238e:	ad de       	rcall	.-678    	; 0x20ea <lcd12864_SetWhite>
			lcd12864_SetWhite(6,4,4,0);
    2390:	20 e0       	ldi	r18, 0x00	; 0
    2392:	44 e0       	ldi	r20, 0x04	; 4
    2394:	64 e0       	ldi	r22, 0x04	; 4
    2396:	86 e0       	ldi	r24, 0x06	; 6
    2398:	a8 de       	rcall	.-688    	; 0x20ea <lcd12864_SetWhite>
			lcd12864_SetWhite(12,4,4,0);
    239a:	20 e0       	ldi	r18, 0x00	; 0
    239c:	44 e0       	ldi	r20, 0x04	; 4
    239e:	64 e0       	ldi	r22, 0x04	; 4
    23a0:	8c e0       	ldi	r24, 0x0C	; 12
    23a2:	a3 de       	rcall	.-698    	; 0x20ea <lcd12864_SetWhite>
			break;
    23a4:	0f c0       	rjmp	.+30     	; 0x23c4 <lcd12864_Focus+0x5c>
		case 1:
			lcd12864_SetWhite(0,4,4,0);
    23a6:	20 e0       	ldi	r18, 0x00	; 0
    23a8:	44 e0       	ldi	r20, 0x04	; 4
    23aa:	64 e0       	ldi	r22, 0x04	; 4
    23ac:	80 e0       	ldi	r24, 0x00	; 0
    23ae:	9d de       	rcall	.-710    	; 0x20ea <lcd12864_SetWhite>
			lcd12864_SetWhite(6,4,4,1);
    23b0:	21 e0       	ldi	r18, 0x01	; 1
    23b2:	44 e0       	ldi	r20, 0x04	; 4
    23b4:	64 e0       	ldi	r22, 0x04	; 4
    23b6:	86 e0       	ldi	r24, 0x06	; 6
    23b8:	98 de       	rcall	.-720    	; 0x20ea <lcd12864_SetWhite>
			lcd12864_SetWhite(12,4,4,1);
    23ba:	21 e0       	ldi	r18, 0x01	; 1
    23bc:	44 e0       	ldi	r20, 0x04	; 4
    23be:	64 e0       	ldi	r22, 0x04	; 4
    23c0:	8c e0       	ldi	r24, 0x0C	; 12
    23c2:	93 de       	rcall	.-730    	; 0x20ea <lcd12864_SetWhite>
			break;
		default:
			break;	
	}
	o_menu = menu;
    23c4:	c0 93 13 04 	sts	0x0413, r28
	}
	
	switch(index){
    23c8:	12 30       	cpi	r17, 0x02	; 2
    23ca:	51 f0       	breq	.+20     	; 0x23e0 <lcd12864_Focus+0x78>
    23cc:	13 30       	cpi	r17, 0x03	; 3
    23ce:	71 f0       	breq	.+28     	; 0x23ec <lcd12864_Focus+0x84>
    23d0:	11 30       	cpi	r17, 0x01	; 1
    23d2:	89 f4       	brne	.+34     	; 0x23f6 <lcd12864_Focus+0x8e>
			case 1:
				lcd12864_set_pos(0,1); 
    23d4:	61 e0       	ldi	r22, 0x01	; 1
    23d6:	80 e0       	ldi	r24, 0x00	; 0
    23d8:	0e de       	rcall	.-996    	; 0x1ff6 <lcd12864_set_pos>
	
}

void lcd12864_write_char(char data){

		lcd12864_send_data(data);
    23da:	8a e2       	ldi	r24, 0x2A	; 42
    23dc:	e2 dd       	rcall	.-1084   	; 0x1fa2 <lcd12864_send_data>
    23de:	0b c0       	rjmp	.+22     	; 0x23f6 <lcd12864_Focus+0x8e>
			case 1:
				lcd12864_set_pos(0,1); 
				lcd12864_write_char('*');
				break;
			case 2:
				lcd12864_set_pos(0,2);
    23e0:	62 e0       	ldi	r22, 0x02	; 2
    23e2:	80 e0       	ldi	r24, 0x00	; 0
    23e4:	08 de       	rcall	.-1008   	; 0x1ff6 <lcd12864_set_pos>
	
}

void lcd12864_write_char(char data){

		lcd12864_send_data(data);
    23e6:	8a e2       	ldi	r24, 0x2A	; 42
    23e8:	dc dd       	rcall	.-1096   	; 0x1fa2 <lcd12864_send_data>
    23ea:	05 c0       	rjmp	.+10     	; 0x23f6 <lcd12864_Focus+0x8e>
			case 2:
				lcd12864_set_pos(0,2);
				lcd12864_write_char('*');
				break;
			case 3:
				lcd12864_set_pos(0,3);
    23ec:	63 e0       	ldi	r22, 0x03	; 3
    23ee:	80 e0       	ldi	r24, 0x00	; 0
    23f0:	02 de       	rcall	.-1020   	; 0x1ff6 <lcd12864_set_pos>
	
}

void lcd12864_write_char(char data){

		lcd12864_send_data(data);
    23f2:	8a e2       	ldi	r24, 0x2A	; 42
    23f4:	d6 dd       	rcall	.-1108   	; 0x1fa2 <lcd12864_send_data>
				break;
			default:
			break;
	}
	
	if(o_white != white){
    23f6:	80 91 12 04 	lds	r24, 0x0412
    23fa:	8d 17       	cp	r24, r29
    23fc:	09 f4       	brne	.+2      	; 0x2400 <lcd12864_Focus+0x98>
    23fe:	e4 c0       	rjmp	.+456    	; 0x25c8 <lcd12864_Focus+0x260>
	switch(white){
    2400:	8d 2f       	mov	r24, r29
    2402:	90 e0       	ldi	r25, 0x00	; 0
    2404:	87 30       	cpi	r24, 0x07	; 7
    2406:	91 05       	cpc	r25, r1
    2408:	08 f0       	brcs	.+2      	; 0x240c <lcd12864_Focus+0xa4>
    240a:	dc c0       	rjmp	.+440    	; 0x25c4 <lcd12864_Focus+0x25c>
    240c:	fc 01       	movw	r30, r24
    240e:	ea 5b       	subi	r30, 0xBA	; 186
    2410:	ff 4f       	sbci	r31, 0xFF	; 255
    2412:	fd c2       	rjmp	.+1530   	; 0x2a0e <__tablejump2__>
		case 0:
			lcd12864_SetWhite(12,2,1,1);
    2414:	21 e0       	ldi	r18, 0x01	; 1
    2416:	41 e0       	ldi	r20, 0x01	; 1
    2418:	62 e0       	ldi	r22, 0x02	; 2
    241a:	8c e0       	ldi	r24, 0x0C	; 12
    241c:	66 de       	rcall	.-820    	; 0x20ea <lcd12864_SetWhite>
			lcd12864_SetWhite(10,2,1,1);
    241e:	21 e0       	ldi	r18, 0x01	; 1
    2420:	41 e0       	ldi	r20, 0x01	; 1
    2422:	62 e0       	ldi	r22, 0x02	; 2
    2424:	8a e0       	ldi	r24, 0x0A	; 10
    2426:	61 de       	rcall	.-830    	; 0x20ea <lcd12864_SetWhite>
			lcd12864_SetWhite(13,3,1,1);
    2428:	21 e0       	ldi	r18, 0x01	; 1
    242a:	41 e0       	ldi	r20, 0x01	; 1
    242c:	63 e0       	ldi	r22, 0x03	; 3
    242e:	8d e0       	ldi	r24, 0x0D	; 13
    2430:	5c de       	rcall	.-840    	; 0x20ea <lcd12864_SetWhite>
			lcd12864_SetWhite(12,3,1,1);
    2432:	21 e0       	ldi	r18, 0x01	; 1
    2434:	41 e0       	ldi	r20, 0x01	; 1
    2436:	63 e0       	ldi	r22, 0x03	; 3
    2438:	8c e0       	ldi	r24, 0x0C	; 12
    243a:	57 de       	rcall	.-850    	; 0x20ea <lcd12864_SetWhite>
			lcd12864_SetWhite(10,3,1,1);
    243c:	21 e0       	ldi	r18, 0x01	; 1
    243e:	41 e0       	ldi	r20, 0x01	; 1
    2440:	63 e0       	ldi	r22, 0x03	; 3
    2442:	8a e0       	ldi	r24, 0x0A	; 10
    2444:	52 de       	rcall	.-860    	; 0x20ea <lcd12864_SetWhite>
			lcd12864_SetWhite(13,2,1,1);
    2446:	21 e0       	ldi	r18, 0x01	; 1
    2448:	41 e0       	ldi	r20, 0x01	; 1
    244a:	62 e0       	ldi	r22, 0x02	; 2
    244c:	8d e0       	ldi	r24, 0x0D	; 13
    244e:	4d de       	rcall	.-870    	; 0x20ea <lcd12864_SetWhite>
			break;
    2450:	b9 c0       	rjmp	.+370    	; 0x25c4 <lcd12864_Focus+0x25c>

		case 1:
			lcd12864_SetWhite(12,2,1,1);
    2452:	21 e0       	ldi	r18, 0x01	; 1
    2454:	41 e0       	ldi	r20, 0x01	; 1
    2456:	62 e0       	ldi	r22, 0x02	; 2
    2458:	8c e0       	ldi	r24, 0x0C	; 12
    245a:	47 de       	rcall	.-882    	; 0x20ea <lcd12864_SetWhite>
			lcd12864_SetWhite(10,2,1,1);
    245c:	21 e0       	ldi	r18, 0x01	; 1
    245e:	41 e0       	ldi	r20, 0x01	; 1
    2460:	62 e0       	ldi	r22, 0x02	; 2
    2462:	8a e0       	ldi	r24, 0x0A	; 10
    2464:	42 de       	rcall	.-892    	; 0x20ea <lcd12864_SetWhite>
			lcd12864_SetWhite(13,3,1,1);
    2466:	21 e0       	ldi	r18, 0x01	; 1
    2468:	41 e0       	ldi	r20, 0x01	; 1
    246a:	63 e0       	ldi	r22, 0x03	; 3
    246c:	8d e0       	ldi	r24, 0x0D	; 13
    246e:	3d de       	rcall	.-902    	; 0x20ea <lcd12864_SetWhite>
			lcd12864_SetWhite(12,3,1,1);
    2470:	21 e0       	ldi	r18, 0x01	; 1
    2472:	41 e0       	ldi	r20, 0x01	; 1
    2474:	63 e0       	ldi	r22, 0x03	; 3
    2476:	8c e0       	ldi	r24, 0x0C	; 12
    2478:	38 de       	rcall	.-912    	; 0x20ea <lcd12864_SetWhite>
			lcd12864_SetWhite(10,3,1,1);
    247a:	21 e0       	ldi	r18, 0x01	; 1
    247c:	41 e0       	ldi	r20, 0x01	; 1
    247e:	63 e0       	ldi	r22, 0x03	; 3
    2480:	8a e0       	ldi	r24, 0x0A	; 10
    2482:	33 de       	rcall	.-922    	; 0x20ea <lcd12864_SetWhite>
			lcd12864_SetWhite(13,2,1,0);
    2484:	20 e0       	ldi	r18, 0x00	; 0
    2486:	41 e0       	ldi	r20, 0x01	; 1
    2488:	62 e0       	ldi	r22, 0x02	; 2
    248a:	8d e0       	ldi	r24, 0x0D	; 13
    248c:	2e de       	rcall	.-932    	; 0x20ea <lcd12864_SetWhite>
			break;
    248e:	9a c0       	rjmp	.+308    	; 0x25c4 <lcd12864_Focus+0x25c>

			break;
		case 2:
			lcd12864_SetWhite(13,2,1,1);
    2490:	21 e0       	ldi	r18, 0x01	; 1
    2492:	41 e0       	ldi	r20, 0x01	; 1
    2494:	62 e0       	ldi	r22, 0x02	; 2
    2496:	8d e0       	ldi	r24, 0x0D	; 13
    2498:	28 de       	rcall	.-944    	; 0x20ea <lcd12864_SetWhite>

			lcd12864_SetWhite(10,2,1,1);
    249a:	21 e0       	ldi	r18, 0x01	; 1
    249c:	41 e0       	ldi	r20, 0x01	; 1
    249e:	62 e0       	ldi	r22, 0x02	; 2
    24a0:	8a e0       	ldi	r24, 0x0A	; 10
    24a2:	23 de       	rcall	.-954    	; 0x20ea <lcd12864_SetWhite>
			lcd12864_SetWhite(13,3,1,1);
    24a4:	21 e0       	ldi	r18, 0x01	; 1
    24a6:	41 e0       	ldi	r20, 0x01	; 1
    24a8:	63 e0       	ldi	r22, 0x03	; 3
    24aa:	8d e0       	ldi	r24, 0x0D	; 13
    24ac:	1e de       	rcall	.-964    	; 0x20ea <lcd12864_SetWhite>
			lcd12864_SetWhite(12,3,1,1);
    24ae:	21 e0       	ldi	r18, 0x01	; 1
    24b0:	41 e0       	ldi	r20, 0x01	; 1
    24b2:	63 e0       	ldi	r22, 0x03	; 3
    24b4:	8c e0       	ldi	r24, 0x0C	; 12
    24b6:	19 de       	rcall	.-974    	; 0x20ea <lcd12864_SetWhite>
			lcd12864_SetWhite(10,3,1,1);
    24b8:	21 e0       	ldi	r18, 0x01	; 1
    24ba:	41 e0       	ldi	r20, 0x01	; 1
    24bc:	63 e0       	ldi	r22, 0x03	; 3
    24be:	8a e0       	ldi	r24, 0x0A	; 10
    24c0:	14 de       	rcall	.-984    	; 0x20ea <lcd12864_SetWhite>
			lcd12864_SetWhite(12,2,1,0);
    24c2:	20 e0       	ldi	r18, 0x00	; 0
    24c4:	41 e0       	ldi	r20, 0x01	; 1
    24c6:	62 e0       	ldi	r22, 0x02	; 2
    24c8:	8c e0       	ldi	r24, 0x0C	; 12
    24ca:	0f de       	rcall	.-994    	; 0x20ea <lcd12864_SetWhite>
			break;
    24cc:	7b c0       	rjmp	.+246    	; 0x25c4 <lcd12864_Focus+0x25c>
		case 3:
			lcd12864_SetWhite(13,2,1,1);
    24ce:	21 e0       	ldi	r18, 0x01	; 1
    24d0:	41 e0       	ldi	r20, 0x01	; 1
    24d2:	62 e0       	ldi	r22, 0x02	; 2
    24d4:	8d e0       	ldi	r24, 0x0D	; 13
    24d6:	09 de       	rcall	.-1006   	; 0x20ea <lcd12864_SetWhite>
			lcd12864_SetWhite(12,2,1,1);
    24d8:	21 e0       	ldi	r18, 0x01	; 1
    24da:	41 e0       	ldi	r20, 0x01	; 1
    24dc:	62 e0       	ldi	r22, 0x02	; 2
    24de:	8c e0       	ldi	r24, 0x0C	; 12
    24e0:	04 de       	rcall	.-1016   	; 0x20ea <lcd12864_SetWhite>

			lcd12864_SetWhite(13,3,1,1);
    24e2:	21 e0       	ldi	r18, 0x01	; 1
    24e4:	41 e0       	ldi	r20, 0x01	; 1
    24e6:	63 e0       	ldi	r22, 0x03	; 3
    24e8:	8d e0       	ldi	r24, 0x0D	; 13
    24ea:	ff dd       	rcall	.-1026   	; 0x20ea <lcd12864_SetWhite>
			lcd12864_SetWhite(12,3,1,1);
    24ec:	21 e0       	ldi	r18, 0x01	; 1
    24ee:	41 e0       	ldi	r20, 0x01	; 1
    24f0:	63 e0       	ldi	r22, 0x03	; 3
    24f2:	8c e0       	ldi	r24, 0x0C	; 12
    24f4:	fa dd       	rcall	.-1036   	; 0x20ea <lcd12864_SetWhite>
			lcd12864_SetWhite(10,3,1,1);
    24f6:	21 e0       	ldi	r18, 0x01	; 1
    24f8:	41 e0       	ldi	r20, 0x01	; 1
    24fa:	63 e0       	ldi	r22, 0x03	; 3
    24fc:	8a e0       	ldi	r24, 0x0A	; 10
    24fe:	f5 dd       	rcall	.-1046   	; 0x20ea <lcd12864_SetWhite>
			lcd12864_SetWhite(10,2,1,0);
    2500:	20 e0       	ldi	r18, 0x00	; 0
    2502:	41 e0       	ldi	r20, 0x01	; 1
    2504:	62 e0       	ldi	r22, 0x02	; 2
    2506:	8a e0       	ldi	r24, 0x0A	; 10
    2508:	f0 dd       	rcall	.-1056   	; 0x20ea <lcd12864_SetWhite>
			break;
    250a:	5c c0       	rjmp	.+184    	; 0x25c4 <lcd12864_Focus+0x25c>
		case 4:
			lcd12864_SetWhite(13,2,1,1);
    250c:	21 e0       	ldi	r18, 0x01	; 1
    250e:	41 e0       	ldi	r20, 0x01	; 1
    2510:	62 e0       	ldi	r22, 0x02	; 2
    2512:	8d e0       	ldi	r24, 0x0D	; 13
    2514:	ea dd       	rcall	.-1068   	; 0x20ea <lcd12864_SetWhite>
			lcd12864_SetWhite(12,2,1,1);
    2516:	21 e0       	ldi	r18, 0x01	; 1
    2518:	41 e0       	ldi	r20, 0x01	; 1
    251a:	62 e0       	ldi	r22, 0x02	; 2
    251c:	8c e0       	ldi	r24, 0x0C	; 12
    251e:	e5 dd       	rcall	.-1078   	; 0x20ea <lcd12864_SetWhite>
			lcd12864_SetWhite(10,2,1,1);
    2520:	21 e0       	ldi	r18, 0x01	; 1
    2522:	41 e0       	ldi	r20, 0x01	; 1
    2524:	62 e0       	ldi	r22, 0x02	; 2
    2526:	8a e0       	ldi	r24, 0x0A	; 10
    2528:	e0 dd       	rcall	.-1088   	; 0x20ea <lcd12864_SetWhite>

			lcd12864_SetWhite(12,3,1,1);
    252a:	21 e0       	ldi	r18, 0x01	; 1
    252c:	41 e0       	ldi	r20, 0x01	; 1
    252e:	63 e0       	ldi	r22, 0x03	; 3
    2530:	8c e0       	ldi	r24, 0x0C	; 12
    2532:	db dd       	rcall	.-1098   	; 0x20ea <lcd12864_SetWhite>
			lcd12864_SetWhite(10,3,1,1);
    2534:	21 e0       	ldi	r18, 0x01	; 1
    2536:	41 e0       	ldi	r20, 0x01	; 1
    2538:	63 e0       	ldi	r22, 0x03	; 3
    253a:	8a e0       	ldi	r24, 0x0A	; 10
    253c:	d6 dd       	rcall	.-1108   	; 0x20ea <lcd12864_SetWhite>
			lcd12864_SetWhite(13,3,1,0);
    253e:	20 e0       	ldi	r18, 0x00	; 0
    2540:	41 e0       	ldi	r20, 0x01	; 1
    2542:	63 e0       	ldi	r22, 0x03	; 3
    2544:	8d e0       	ldi	r24, 0x0D	; 13
    2546:	d1 dd       	rcall	.-1118   	; 0x20ea <lcd12864_SetWhite>
			break;
    2548:	3d c0       	rjmp	.+122    	; 0x25c4 <lcd12864_Focus+0x25c>
		case 5:
			lcd12864_SetWhite(13,2,1,1);
    254a:	21 e0       	ldi	r18, 0x01	; 1
    254c:	41 e0       	ldi	r20, 0x01	; 1
    254e:	62 e0       	ldi	r22, 0x02	; 2
    2550:	8d e0       	ldi	r24, 0x0D	; 13
    2552:	cb dd       	rcall	.-1130   	; 0x20ea <lcd12864_SetWhite>
			lcd12864_SetWhite(12,2,1,1);
    2554:	21 e0       	ldi	r18, 0x01	; 1
    2556:	41 e0       	ldi	r20, 0x01	; 1
    2558:	62 e0       	ldi	r22, 0x02	; 2
    255a:	8c e0       	ldi	r24, 0x0C	; 12
    255c:	c6 dd       	rcall	.-1140   	; 0x20ea <lcd12864_SetWhite>
			lcd12864_SetWhite(10,2,1,1);
    255e:	21 e0       	ldi	r18, 0x01	; 1
    2560:	41 e0       	ldi	r20, 0x01	; 1
    2562:	62 e0       	ldi	r22, 0x02	; 2
    2564:	8a e0       	ldi	r24, 0x0A	; 10
    2566:	c1 dd       	rcall	.-1150   	; 0x20ea <lcd12864_SetWhite>
			lcd12864_SetWhite(13,3,1,1);
    2568:	21 e0       	ldi	r18, 0x01	; 1
    256a:	41 e0       	ldi	r20, 0x01	; 1
    256c:	63 e0       	ldi	r22, 0x03	; 3
    256e:	8d e0       	ldi	r24, 0x0D	; 13
    2570:	bc dd       	rcall	.-1160   	; 0x20ea <lcd12864_SetWhite>
			
			lcd12864_SetWhite(10,3,1,1);
    2572:	21 e0       	ldi	r18, 0x01	; 1
    2574:	41 e0       	ldi	r20, 0x01	; 1
    2576:	63 e0       	ldi	r22, 0x03	; 3
    2578:	8a e0       	ldi	r24, 0x0A	; 10
    257a:	b7 dd       	rcall	.-1170   	; 0x20ea <lcd12864_SetWhite>
			lcd12864_SetWhite(12,3,1,0);
    257c:	20 e0       	ldi	r18, 0x00	; 0
    257e:	41 e0       	ldi	r20, 0x01	; 1
    2580:	63 e0       	ldi	r22, 0x03	; 3
    2582:	8c e0       	ldi	r24, 0x0C	; 12
    2584:	b2 dd       	rcall	.-1180   	; 0x20ea <lcd12864_SetWhite>
			break;
    2586:	1e c0       	rjmp	.+60     	; 0x25c4 <lcd12864_Focus+0x25c>
		case 6:
			lcd12864_SetWhite(13,2,1,1);
    2588:	21 e0       	ldi	r18, 0x01	; 1
    258a:	41 e0       	ldi	r20, 0x01	; 1
    258c:	62 e0       	ldi	r22, 0x02	; 2
    258e:	8d e0       	ldi	r24, 0x0D	; 13
    2590:	ac dd       	rcall	.-1192   	; 0x20ea <lcd12864_SetWhite>
			lcd12864_SetWhite(12,2,1,1);
    2592:	21 e0       	ldi	r18, 0x01	; 1
    2594:	41 e0       	ldi	r20, 0x01	; 1
    2596:	62 e0       	ldi	r22, 0x02	; 2
    2598:	8c e0       	ldi	r24, 0x0C	; 12
    259a:	a7 dd       	rcall	.-1202   	; 0x20ea <lcd12864_SetWhite>
			lcd12864_SetWhite(10,2,1,1);
    259c:	21 e0       	ldi	r18, 0x01	; 1
    259e:	41 e0       	ldi	r20, 0x01	; 1
    25a0:	62 e0       	ldi	r22, 0x02	; 2
    25a2:	8a e0       	ldi	r24, 0x0A	; 10
    25a4:	a2 dd       	rcall	.-1212   	; 0x20ea <lcd12864_SetWhite>
			lcd12864_SetWhite(13,3,1,1);
    25a6:	21 e0       	ldi	r18, 0x01	; 1
    25a8:	41 e0       	ldi	r20, 0x01	; 1
    25aa:	63 e0       	ldi	r22, 0x03	; 3
    25ac:	8d e0       	ldi	r24, 0x0D	; 13
    25ae:	9d dd       	rcall	.-1222   	; 0x20ea <lcd12864_SetWhite>
			lcd12864_SetWhite(12,3,1,1);
    25b0:	21 e0       	ldi	r18, 0x01	; 1
    25b2:	41 e0       	ldi	r20, 0x01	; 1
    25b4:	63 e0       	ldi	r22, 0x03	; 3
    25b6:	8c e0       	ldi	r24, 0x0C	; 12
    25b8:	98 dd       	rcall	.-1232   	; 0x20ea <lcd12864_SetWhite>
			lcd12864_SetWhite(10,3,1,0);
    25ba:	20 e0       	ldi	r18, 0x00	; 0
    25bc:	41 e0       	ldi	r20, 0x01	; 1
    25be:	63 e0       	ldi	r22, 0x03	; 3
    25c0:	8a e0       	ldi	r24, 0x0A	; 10
    25c2:	93 dd       	rcall	.-1242   	; 0x20ea <lcd12864_SetWhite>
			break;
		default:
			break;
	}
	o_white = white;
    25c4:	d0 93 12 04 	sts	0x0412, r29
			
	}
	
	lcd12864_send_cmd(0x36);
    25c8:	86 e3       	ldi	r24, 0x36	; 54
    25ca:	fb dc       	rcall	.-1546   	; 0x1fc2 <lcd12864_send_cmd>
	lcd12864_send_cmd(0x30);
    25cc:	80 e3       	ldi	r24, 0x30	; 48
    25ce:	f9 dc       	rcall	.-1550   	; 0x1fc2 <lcd12864_send_cmd>
	}
    25d0:	df 91       	pop	r29
    25d2:	cf 91       	pop	r28
    25d4:	1f 91       	pop	r17
    25d6:	08 95       	ret

000025d8 <__subsf3>:
    25d8:	50 58       	subi	r21, 0x80	; 128

000025da <__addsf3>:
    25da:	bb 27       	eor	r27, r27
    25dc:	aa 27       	eor	r26, r26
    25de:	0e d0       	rcall	.+28     	; 0x25fc <__addsf3x>
    25e0:	75 c1       	rjmp	.+746    	; 0x28cc <__fp_round>
    25e2:	66 d1       	rcall	.+716    	; 0x28b0 <__fp_pscA>
    25e4:	30 f0       	brcs	.+12     	; 0x25f2 <__addsf3+0x18>
    25e6:	6b d1       	rcall	.+726    	; 0x28be <__fp_pscB>
    25e8:	20 f0       	brcs	.+8      	; 0x25f2 <__addsf3+0x18>
    25ea:	31 f4       	brne	.+12     	; 0x25f8 <__addsf3+0x1e>
    25ec:	9f 3f       	cpi	r25, 0xFF	; 255
    25ee:	11 f4       	brne	.+4      	; 0x25f4 <__addsf3+0x1a>
    25f0:	1e f4       	brtc	.+6      	; 0x25f8 <__addsf3+0x1e>
    25f2:	5b c1       	rjmp	.+694    	; 0x28aa <__fp_nan>
    25f4:	0e f4       	brtc	.+2      	; 0x25f8 <__addsf3+0x1e>
    25f6:	e0 95       	com	r30
    25f8:	e7 fb       	bst	r30, 7
    25fa:	51 c1       	rjmp	.+674    	; 0x289e <__fp_inf>

000025fc <__addsf3x>:
    25fc:	e9 2f       	mov	r30, r25
    25fe:	77 d1       	rcall	.+750    	; 0x28ee <__fp_split3>
    2600:	80 f3       	brcs	.-32     	; 0x25e2 <__addsf3+0x8>
    2602:	ba 17       	cp	r27, r26
    2604:	62 07       	cpc	r22, r18
    2606:	73 07       	cpc	r23, r19
    2608:	84 07       	cpc	r24, r20
    260a:	95 07       	cpc	r25, r21
    260c:	18 f0       	brcs	.+6      	; 0x2614 <__addsf3x+0x18>
    260e:	71 f4       	brne	.+28     	; 0x262c <__addsf3x+0x30>
    2610:	9e f5       	brtc	.+102    	; 0x2678 <__addsf3x+0x7c>
    2612:	8f c1       	rjmp	.+798    	; 0x2932 <__fp_zero>
    2614:	0e f4       	brtc	.+2      	; 0x2618 <__addsf3x+0x1c>
    2616:	e0 95       	com	r30
    2618:	0b 2e       	mov	r0, r27
    261a:	ba 2f       	mov	r27, r26
    261c:	a0 2d       	mov	r26, r0
    261e:	0b 01       	movw	r0, r22
    2620:	b9 01       	movw	r22, r18
    2622:	90 01       	movw	r18, r0
    2624:	0c 01       	movw	r0, r24
    2626:	ca 01       	movw	r24, r20
    2628:	a0 01       	movw	r20, r0
    262a:	11 24       	eor	r1, r1
    262c:	ff 27       	eor	r31, r31
    262e:	59 1b       	sub	r21, r25
    2630:	99 f0       	breq	.+38     	; 0x2658 <__addsf3x+0x5c>
    2632:	59 3f       	cpi	r21, 0xF9	; 249
    2634:	50 f4       	brcc	.+20     	; 0x264a <__addsf3x+0x4e>
    2636:	50 3e       	cpi	r21, 0xE0	; 224
    2638:	68 f1       	brcs	.+90     	; 0x2694 <__addsf3x+0x98>
    263a:	1a 16       	cp	r1, r26
    263c:	f0 40       	sbci	r31, 0x00	; 0
    263e:	a2 2f       	mov	r26, r18
    2640:	23 2f       	mov	r18, r19
    2642:	34 2f       	mov	r19, r20
    2644:	44 27       	eor	r20, r20
    2646:	58 5f       	subi	r21, 0xF8	; 248
    2648:	f3 cf       	rjmp	.-26     	; 0x2630 <__addsf3x+0x34>
    264a:	46 95       	lsr	r20
    264c:	37 95       	ror	r19
    264e:	27 95       	ror	r18
    2650:	a7 95       	ror	r26
    2652:	f0 40       	sbci	r31, 0x00	; 0
    2654:	53 95       	inc	r21
    2656:	c9 f7       	brne	.-14     	; 0x264a <__addsf3x+0x4e>
    2658:	7e f4       	brtc	.+30     	; 0x2678 <__addsf3x+0x7c>
    265a:	1f 16       	cp	r1, r31
    265c:	ba 0b       	sbc	r27, r26
    265e:	62 0b       	sbc	r22, r18
    2660:	73 0b       	sbc	r23, r19
    2662:	84 0b       	sbc	r24, r20
    2664:	ba f0       	brmi	.+46     	; 0x2694 <__addsf3x+0x98>
    2666:	91 50       	subi	r25, 0x01	; 1
    2668:	a1 f0       	breq	.+40     	; 0x2692 <__addsf3x+0x96>
    266a:	ff 0f       	add	r31, r31
    266c:	bb 1f       	adc	r27, r27
    266e:	66 1f       	adc	r22, r22
    2670:	77 1f       	adc	r23, r23
    2672:	88 1f       	adc	r24, r24
    2674:	c2 f7       	brpl	.-16     	; 0x2666 <__addsf3x+0x6a>
    2676:	0e c0       	rjmp	.+28     	; 0x2694 <__addsf3x+0x98>
    2678:	ba 0f       	add	r27, r26
    267a:	62 1f       	adc	r22, r18
    267c:	73 1f       	adc	r23, r19
    267e:	84 1f       	adc	r24, r20
    2680:	48 f4       	brcc	.+18     	; 0x2694 <__addsf3x+0x98>
    2682:	87 95       	ror	r24
    2684:	77 95       	ror	r23
    2686:	67 95       	ror	r22
    2688:	b7 95       	ror	r27
    268a:	f7 95       	ror	r31
    268c:	9e 3f       	cpi	r25, 0xFE	; 254
    268e:	08 f0       	brcs	.+2      	; 0x2692 <__addsf3x+0x96>
    2690:	b3 cf       	rjmp	.-154    	; 0x25f8 <__addsf3+0x1e>
    2692:	93 95       	inc	r25
    2694:	88 0f       	add	r24, r24
    2696:	08 f0       	brcs	.+2      	; 0x269a <__addsf3x+0x9e>
    2698:	99 27       	eor	r25, r25
    269a:	ee 0f       	add	r30, r30
    269c:	97 95       	ror	r25
    269e:	87 95       	ror	r24
    26a0:	08 95       	ret

000026a2 <__cmpsf2>:
    26a2:	d9 d0       	rcall	.+434    	; 0x2856 <__fp_cmp>
    26a4:	08 f4       	brcc	.+2      	; 0x26a8 <__cmpsf2+0x6>
    26a6:	81 e0       	ldi	r24, 0x01	; 1
    26a8:	08 95       	ret

000026aa <__divsf3>:
    26aa:	0c d0       	rcall	.+24     	; 0x26c4 <__divsf3x>
    26ac:	0f c1       	rjmp	.+542    	; 0x28cc <__fp_round>
    26ae:	07 d1       	rcall	.+526    	; 0x28be <__fp_pscB>
    26b0:	40 f0       	brcs	.+16     	; 0x26c2 <__divsf3+0x18>
    26b2:	fe d0       	rcall	.+508    	; 0x28b0 <__fp_pscA>
    26b4:	30 f0       	brcs	.+12     	; 0x26c2 <__divsf3+0x18>
    26b6:	21 f4       	brne	.+8      	; 0x26c0 <__divsf3+0x16>
    26b8:	5f 3f       	cpi	r21, 0xFF	; 255
    26ba:	19 f0       	breq	.+6      	; 0x26c2 <__divsf3+0x18>
    26bc:	f0 c0       	rjmp	.+480    	; 0x289e <__fp_inf>
    26be:	51 11       	cpse	r21, r1
    26c0:	39 c1       	rjmp	.+626    	; 0x2934 <__fp_szero>
    26c2:	f3 c0       	rjmp	.+486    	; 0x28aa <__fp_nan>

000026c4 <__divsf3x>:
    26c4:	14 d1       	rcall	.+552    	; 0x28ee <__fp_split3>
    26c6:	98 f3       	brcs	.-26     	; 0x26ae <__divsf3+0x4>

000026c8 <__divsf3_pse>:
    26c8:	99 23       	and	r25, r25
    26ca:	c9 f3       	breq	.-14     	; 0x26be <__divsf3+0x14>
    26cc:	55 23       	and	r21, r21
    26ce:	b1 f3       	breq	.-20     	; 0x26bc <__divsf3+0x12>
    26d0:	95 1b       	sub	r25, r21
    26d2:	55 0b       	sbc	r21, r21
    26d4:	bb 27       	eor	r27, r27
    26d6:	aa 27       	eor	r26, r26
    26d8:	62 17       	cp	r22, r18
    26da:	73 07       	cpc	r23, r19
    26dc:	84 07       	cpc	r24, r20
    26de:	38 f0       	brcs	.+14     	; 0x26ee <__divsf3_pse+0x26>
    26e0:	9f 5f       	subi	r25, 0xFF	; 255
    26e2:	5f 4f       	sbci	r21, 0xFF	; 255
    26e4:	22 0f       	add	r18, r18
    26e6:	33 1f       	adc	r19, r19
    26e8:	44 1f       	adc	r20, r20
    26ea:	aa 1f       	adc	r26, r26
    26ec:	a9 f3       	breq	.-22     	; 0x26d8 <__divsf3_pse+0x10>
    26ee:	33 d0       	rcall	.+102    	; 0x2756 <__divsf3_pse+0x8e>
    26f0:	0e 2e       	mov	r0, r30
    26f2:	3a f0       	brmi	.+14     	; 0x2702 <__divsf3_pse+0x3a>
    26f4:	e0 e8       	ldi	r30, 0x80	; 128
    26f6:	30 d0       	rcall	.+96     	; 0x2758 <__divsf3_pse+0x90>
    26f8:	91 50       	subi	r25, 0x01	; 1
    26fa:	50 40       	sbci	r21, 0x00	; 0
    26fc:	e6 95       	lsr	r30
    26fe:	00 1c       	adc	r0, r0
    2700:	ca f7       	brpl	.-14     	; 0x26f4 <__divsf3_pse+0x2c>
    2702:	29 d0       	rcall	.+82     	; 0x2756 <__divsf3_pse+0x8e>
    2704:	fe 2f       	mov	r31, r30
    2706:	27 d0       	rcall	.+78     	; 0x2756 <__divsf3_pse+0x8e>
    2708:	66 0f       	add	r22, r22
    270a:	77 1f       	adc	r23, r23
    270c:	88 1f       	adc	r24, r24
    270e:	bb 1f       	adc	r27, r27
    2710:	26 17       	cp	r18, r22
    2712:	37 07       	cpc	r19, r23
    2714:	48 07       	cpc	r20, r24
    2716:	ab 07       	cpc	r26, r27
    2718:	b0 e8       	ldi	r27, 0x80	; 128
    271a:	09 f0       	breq	.+2      	; 0x271e <__divsf3_pse+0x56>
    271c:	bb 0b       	sbc	r27, r27
    271e:	80 2d       	mov	r24, r0
    2720:	bf 01       	movw	r22, r30
    2722:	ff 27       	eor	r31, r31
    2724:	93 58       	subi	r25, 0x83	; 131
    2726:	5f 4f       	sbci	r21, 0xFF	; 255
    2728:	2a f0       	brmi	.+10     	; 0x2734 <__divsf3_pse+0x6c>
    272a:	9e 3f       	cpi	r25, 0xFE	; 254
    272c:	51 05       	cpc	r21, r1
    272e:	68 f0       	brcs	.+26     	; 0x274a <__divsf3_pse+0x82>
    2730:	b6 c0       	rjmp	.+364    	; 0x289e <__fp_inf>
    2732:	00 c1       	rjmp	.+512    	; 0x2934 <__fp_szero>
    2734:	5f 3f       	cpi	r21, 0xFF	; 255
    2736:	ec f3       	brlt	.-6      	; 0x2732 <__divsf3_pse+0x6a>
    2738:	98 3e       	cpi	r25, 0xE8	; 232
    273a:	dc f3       	brlt	.-10     	; 0x2732 <__divsf3_pse+0x6a>
    273c:	86 95       	lsr	r24
    273e:	77 95       	ror	r23
    2740:	67 95       	ror	r22
    2742:	b7 95       	ror	r27
    2744:	f7 95       	ror	r31
    2746:	9f 5f       	subi	r25, 0xFF	; 255
    2748:	c9 f7       	brne	.-14     	; 0x273c <__divsf3_pse+0x74>
    274a:	88 0f       	add	r24, r24
    274c:	91 1d       	adc	r25, r1
    274e:	96 95       	lsr	r25
    2750:	87 95       	ror	r24
    2752:	97 f9       	bld	r25, 7
    2754:	08 95       	ret
    2756:	e1 e0       	ldi	r30, 0x01	; 1
    2758:	66 0f       	add	r22, r22
    275a:	77 1f       	adc	r23, r23
    275c:	88 1f       	adc	r24, r24
    275e:	bb 1f       	adc	r27, r27
    2760:	62 17       	cp	r22, r18
    2762:	73 07       	cpc	r23, r19
    2764:	84 07       	cpc	r24, r20
    2766:	ba 07       	cpc	r27, r26
    2768:	20 f0       	brcs	.+8      	; 0x2772 <__divsf3_pse+0xaa>
    276a:	62 1b       	sub	r22, r18
    276c:	73 0b       	sbc	r23, r19
    276e:	84 0b       	sbc	r24, r20
    2770:	ba 0b       	sbc	r27, r26
    2772:	ee 1f       	adc	r30, r30
    2774:	88 f7       	brcc	.-30     	; 0x2758 <__divsf3_pse+0x90>
    2776:	e0 95       	com	r30
    2778:	08 95       	ret

0000277a <__fixsfsi>:
    277a:	04 d0       	rcall	.+8      	; 0x2784 <__fixunssfsi>
    277c:	68 94       	set
    277e:	b1 11       	cpse	r27, r1
    2780:	d9 c0       	rjmp	.+434    	; 0x2934 <__fp_szero>
    2782:	08 95       	ret

00002784 <__fixunssfsi>:
    2784:	bc d0       	rcall	.+376    	; 0x28fe <__fp_splitA>
    2786:	88 f0       	brcs	.+34     	; 0x27aa <__fixunssfsi+0x26>
    2788:	9f 57       	subi	r25, 0x7F	; 127
    278a:	90 f0       	brcs	.+36     	; 0x27b0 <__fixunssfsi+0x2c>
    278c:	b9 2f       	mov	r27, r25
    278e:	99 27       	eor	r25, r25
    2790:	b7 51       	subi	r27, 0x17	; 23
    2792:	a0 f0       	brcs	.+40     	; 0x27bc <__fixunssfsi+0x38>
    2794:	d1 f0       	breq	.+52     	; 0x27ca <__fixunssfsi+0x46>
    2796:	66 0f       	add	r22, r22
    2798:	77 1f       	adc	r23, r23
    279a:	88 1f       	adc	r24, r24
    279c:	99 1f       	adc	r25, r25
    279e:	1a f0       	brmi	.+6      	; 0x27a6 <__fixunssfsi+0x22>
    27a0:	ba 95       	dec	r27
    27a2:	c9 f7       	brne	.-14     	; 0x2796 <__fixunssfsi+0x12>
    27a4:	12 c0       	rjmp	.+36     	; 0x27ca <__fixunssfsi+0x46>
    27a6:	b1 30       	cpi	r27, 0x01	; 1
    27a8:	81 f0       	breq	.+32     	; 0x27ca <__fixunssfsi+0x46>
    27aa:	c3 d0       	rcall	.+390    	; 0x2932 <__fp_zero>
    27ac:	b1 e0       	ldi	r27, 0x01	; 1
    27ae:	08 95       	ret
    27b0:	c0 c0       	rjmp	.+384    	; 0x2932 <__fp_zero>
    27b2:	67 2f       	mov	r22, r23
    27b4:	78 2f       	mov	r23, r24
    27b6:	88 27       	eor	r24, r24
    27b8:	b8 5f       	subi	r27, 0xF8	; 248
    27ba:	39 f0       	breq	.+14     	; 0x27ca <__fixunssfsi+0x46>
    27bc:	b9 3f       	cpi	r27, 0xF9	; 249
    27be:	cc f3       	brlt	.-14     	; 0x27b2 <__fixunssfsi+0x2e>
    27c0:	86 95       	lsr	r24
    27c2:	77 95       	ror	r23
    27c4:	67 95       	ror	r22
    27c6:	b3 95       	inc	r27
    27c8:	d9 f7       	brne	.-10     	; 0x27c0 <__fixunssfsi+0x3c>
    27ca:	3e f4       	brtc	.+14     	; 0x27da <__fixunssfsi+0x56>
    27cc:	90 95       	com	r25
    27ce:	80 95       	com	r24
    27d0:	70 95       	com	r23
    27d2:	61 95       	neg	r22
    27d4:	7f 4f       	sbci	r23, 0xFF	; 255
    27d6:	8f 4f       	sbci	r24, 0xFF	; 255
    27d8:	9f 4f       	sbci	r25, 0xFF	; 255
    27da:	08 95       	ret

000027dc <__floatunsisf>:
    27dc:	e8 94       	clt
    27de:	09 c0       	rjmp	.+18     	; 0x27f2 <__floatsisf+0x12>

000027e0 <__floatsisf>:
    27e0:	97 fb       	bst	r25, 7
    27e2:	3e f4       	brtc	.+14     	; 0x27f2 <__floatsisf+0x12>
    27e4:	90 95       	com	r25
    27e6:	80 95       	com	r24
    27e8:	70 95       	com	r23
    27ea:	61 95       	neg	r22
    27ec:	7f 4f       	sbci	r23, 0xFF	; 255
    27ee:	8f 4f       	sbci	r24, 0xFF	; 255
    27f0:	9f 4f       	sbci	r25, 0xFF	; 255
    27f2:	99 23       	and	r25, r25
    27f4:	a9 f0       	breq	.+42     	; 0x2820 <__floatsisf+0x40>
    27f6:	f9 2f       	mov	r31, r25
    27f8:	96 e9       	ldi	r25, 0x96	; 150
    27fa:	bb 27       	eor	r27, r27
    27fc:	93 95       	inc	r25
    27fe:	f6 95       	lsr	r31
    2800:	87 95       	ror	r24
    2802:	77 95       	ror	r23
    2804:	67 95       	ror	r22
    2806:	b7 95       	ror	r27
    2808:	f1 11       	cpse	r31, r1
    280a:	f8 cf       	rjmp	.-16     	; 0x27fc <__floatsisf+0x1c>
    280c:	fa f4       	brpl	.+62     	; 0x284c <__floatsisf+0x6c>
    280e:	bb 0f       	add	r27, r27
    2810:	11 f4       	brne	.+4      	; 0x2816 <__floatsisf+0x36>
    2812:	60 ff       	sbrs	r22, 0
    2814:	1b c0       	rjmp	.+54     	; 0x284c <__floatsisf+0x6c>
    2816:	6f 5f       	subi	r22, 0xFF	; 255
    2818:	7f 4f       	sbci	r23, 0xFF	; 255
    281a:	8f 4f       	sbci	r24, 0xFF	; 255
    281c:	9f 4f       	sbci	r25, 0xFF	; 255
    281e:	16 c0       	rjmp	.+44     	; 0x284c <__floatsisf+0x6c>
    2820:	88 23       	and	r24, r24
    2822:	11 f0       	breq	.+4      	; 0x2828 <__floatsisf+0x48>
    2824:	96 e9       	ldi	r25, 0x96	; 150
    2826:	11 c0       	rjmp	.+34     	; 0x284a <__floatsisf+0x6a>
    2828:	77 23       	and	r23, r23
    282a:	21 f0       	breq	.+8      	; 0x2834 <__floatsisf+0x54>
    282c:	9e e8       	ldi	r25, 0x8E	; 142
    282e:	87 2f       	mov	r24, r23
    2830:	76 2f       	mov	r23, r22
    2832:	05 c0       	rjmp	.+10     	; 0x283e <__floatsisf+0x5e>
    2834:	66 23       	and	r22, r22
    2836:	71 f0       	breq	.+28     	; 0x2854 <__floatsisf+0x74>
    2838:	96 e8       	ldi	r25, 0x86	; 134
    283a:	86 2f       	mov	r24, r22
    283c:	70 e0       	ldi	r23, 0x00	; 0
    283e:	60 e0       	ldi	r22, 0x00	; 0
    2840:	2a f0       	brmi	.+10     	; 0x284c <__floatsisf+0x6c>
    2842:	9a 95       	dec	r25
    2844:	66 0f       	add	r22, r22
    2846:	77 1f       	adc	r23, r23
    2848:	88 1f       	adc	r24, r24
    284a:	da f7       	brpl	.-10     	; 0x2842 <__floatsisf+0x62>
    284c:	88 0f       	add	r24, r24
    284e:	96 95       	lsr	r25
    2850:	87 95       	ror	r24
    2852:	97 f9       	bld	r25, 7
    2854:	08 95       	ret

00002856 <__fp_cmp>:
    2856:	99 0f       	add	r25, r25
    2858:	00 08       	sbc	r0, r0
    285a:	55 0f       	add	r21, r21
    285c:	aa 0b       	sbc	r26, r26
    285e:	e0 e8       	ldi	r30, 0x80	; 128
    2860:	fe ef       	ldi	r31, 0xFE	; 254
    2862:	16 16       	cp	r1, r22
    2864:	17 06       	cpc	r1, r23
    2866:	e8 07       	cpc	r30, r24
    2868:	f9 07       	cpc	r31, r25
    286a:	c0 f0       	brcs	.+48     	; 0x289c <__fp_cmp+0x46>
    286c:	12 16       	cp	r1, r18
    286e:	13 06       	cpc	r1, r19
    2870:	e4 07       	cpc	r30, r20
    2872:	f5 07       	cpc	r31, r21
    2874:	98 f0       	brcs	.+38     	; 0x289c <__fp_cmp+0x46>
    2876:	62 1b       	sub	r22, r18
    2878:	73 0b       	sbc	r23, r19
    287a:	84 0b       	sbc	r24, r20
    287c:	95 0b       	sbc	r25, r21
    287e:	39 f4       	brne	.+14     	; 0x288e <__fp_cmp+0x38>
    2880:	0a 26       	eor	r0, r26
    2882:	61 f0       	breq	.+24     	; 0x289c <__fp_cmp+0x46>
    2884:	23 2b       	or	r18, r19
    2886:	24 2b       	or	r18, r20
    2888:	25 2b       	or	r18, r21
    288a:	21 f4       	brne	.+8      	; 0x2894 <__fp_cmp+0x3e>
    288c:	08 95       	ret
    288e:	0a 26       	eor	r0, r26
    2890:	09 f4       	brne	.+2      	; 0x2894 <__fp_cmp+0x3e>
    2892:	a1 40       	sbci	r26, 0x01	; 1
    2894:	a6 95       	lsr	r26
    2896:	8f ef       	ldi	r24, 0xFF	; 255
    2898:	81 1d       	adc	r24, r1
    289a:	81 1d       	adc	r24, r1
    289c:	08 95       	ret

0000289e <__fp_inf>:
    289e:	97 f9       	bld	r25, 7
    28a0:	9f 67       	ori	r25, 0x7F	; 127
    28a2:	80 e8       	ldi	r24, 0x80	; 128
    28a4:	70 e0       	ldi	r23, 0x00	; 0
    28a6:	60 e0       	ldi	r22, 0x00	; 0
    28a8:	08 95       	ret

000028aa <__fp_nan>:
    28aa:	9f ef       	ldi	r25, 0xFF	; 255
    28ac:	80 ec       	ldi	r24, 0xC0	; 192
    28ae:	08 95       	ret

000028b0 <__fp_pscA>:
    28b0:	00 24       	eor	r0, r0
    28b2:	0a 94       	dec	r0
    28b4:	16 16       	cp	r1, r22
    28b6:	17 06       	cpc	r1, r23
    28b8:	18 06       	cpc	r1, r24
    28ba:	09 06       	cpc	r0, r25
    28bc:	08 95       	ret

000028be <__fp_pscB>:
    28be:	00 24       	eor	r0, r0
    28c0:	0a 94       	dec	r0
    28c2:	12 16       	cp	r1, r18
    28c4:	13 06       	cpc	r1, r19
    28c6:	14 06       	cpc	r1, r20
    28c8:	05 06       	cpc	r0, r21
    28ca:	08 95       	ret

000028cc <__fp_round>:
    28cc:	09 2e       	mov	r0, r25
    28ce:	03 94       	inc	r0
    28d0:	00 0c       	add	r0, r0
    28d2:	11 f4       	brne	.+4      	; 0x28d8 <__fp_round+0xc>
    28d4:	88 23       	and	r24, r24
    28d6:	52 f0       	brmi	.+20     	; 0x28ec <__fp_round+0x20>
    28d8:	bb 0f       	add	r27, r27
    28da:	40 f4       	brcc	.+16     	; 0x28ec <__fp_round+0x20>
    28dc:	bf 2b       	or	r27, r31
    28de:	11 f4       	brne	.+4      	; 0x28e4 <__fp_round+0x18>
    28e0:	60 ff       	sbrs	r22, 0
    28e2:	04 c0       	rjmp	.+8      	; 0x28ec <__fp_round+0x20>
    28e4:	6f 5f       	subi	r22, 0xFF	; 255
    28e6:	7f 4f       	sbci	r23, 0xFF	; 255
    28e8:	8f 4f       	sbci	r24, 0xFF	; 255
    28ea:	9f 4f       	sbci	r25, 0xFF	; 255
    28ec:	08 95       	ret

000028ee <__fp_split3>:
    28ee:	57 fd       	sbrc	r21, 7
    28f0:	90 58       	subi	r25, 0x80	; 128
    28f2:	44 0f       	add	r20, r20
    28f4:	55 1f       	adc	r21, r21
    28f6:	59 f0       	breq	.+22     	; 0x290e <__fp_splitA+0x10>
    28f8:	5f 3f       	cpi	r21, 0xFF	; 255
    28fa:	71 f0       	breq	.+28     	; 0x2918 <__fp_splitA+0x1a>
    28fc:	47 95       	ror	r20

000028fe <__fp_splitA>:
    28fe:	88 0f       	add	r24, r24
    2900:	97 fb       	bst	r25, 7
    2902:	99 1f       	adc	r25, r25
    2904:	61 f0       	breq	.+24     	; 0x291e <__fp_splitA+0x20>
    2906:	9f 3f       	cpi	r25, 0xFF	; 255
    2908:	79 f0       	breq	.+30     	; 0x2928 <__fp_splitA+0x2a>
    290a:	87 95       	ror	r24
    290c:	08 95       	ret
    290e:	12 16       	cp	r1, r18
    2910:	13 06       	cpc	r1, r19
    2912:	14 06       	cpc	r1, r20
    2914:	55 1f       	adc	r21, r21
    2916:	f2 cf       	rjmp	.-28     	; 0x28fc <__fp_split3+0xe>
    2918:	46 95       	lsr	r20
    291a:	f1 df       	rcall	.-30     	; 0x28fe <__fp_splitA>
    291c:	08 c0       	rjmp	.+16     	; 0x292e <__fp_splitA+0x30>
    291e:	16 16       	cp	r1, r22
    2920:	17 06       	cpc	r1, r23
    2922:	18 06       	cpc	r1, r24
    2924:	99 1f       	adc	r25, r25
    2926:	f1 cf       	rjmp	.-30     	; 0x290a <__fp_splitA+0xc>
    2928:	86 95       	lsr	r24
    292a:	71 05       	cpc	r23, r1
    292c:	61 05       	cpc	r22, r1
    292e:	08 94       	sec
    2930:	08 95       	ret

00002932 <__fp_zero>:
    2932:	e8 94       	clt

00002934 <__fp_szero>:
    2934:	bb 27       	eor	r27, r27
    2936:	66 27       	eor	r22, r22
    2938:	77 27       	eor	r23, r23
    293a:	cb 01       	movw	r24, r22
    293c:	97 f9       	bld	r25, 7
    293e:	08 95       	ret

00002940 <__gesf2>:
    2940:	8a df       	rcall	.-236    	; 0x2856 <__fp_cmp>
    2942:	08 f4       	brcc	.+2      	; 0x2946 <__gesf2+0x6>
    2944:	8f ef       	ldi	r24, 0xFF	; 255
    2946:	08 95       	ret

00002948 <__mulsf3>:
    2948:	0b d0       	rcall	.+22     	; 0x2960 <__mulsf3x>
    294a:	c0 cf       	rjmp	.-128    	; 0x28cc <__fp_round>
    294c:	b1 df       	rcall	.-158    	; 0x28b0 <__fp_pscA>
    294e:	28 f0       	brcs	.+10     	; 0x295a <__mulsf3+0x12>
    2950:	b6 df       	rcall	.-148    	; 0x28be <__fp_pscB>
    2952:	18 f0       	brcs	.+6      	; 0x295a <__mulsf3+0x12>
    2954:	95 23       	and	r25, r21
    2956:	09 f0       	breq	.+2      	; 0x295a <__mulsf3+0x12>
    2958:	a2 cf       	rjmp	.-188    	; 0x289e <__fp_inf>
    295a:	a7 cf       	rjmp	.-178    	; 0x28aa <__fp_nan>
    295c:	11 24       	eor	r1, r1
    295e:	ea cf       	rjmp	.-44     	; 0x2934 <__fp_szero>

00002960 <__mulsf3x>:
    2960:	c6 df       	rcall	.-116    	; 0x28ee <__fp_split3>
    2962:	a0 f3       	brcs	.-24     	; 0x294c <__mulsf3+0x4>

00002964 <__mulsf3_pse>:
    2964:	95 9f       	mul	r25, r21
    2966:	d1 f3       	breq	.-12     	; 0x295c <__mulsf3+0x14>
    2968:	95 0f       	add	r25, r21
    296a:	50 e0       	ldi	r21, 0x00	; 0
    296c:	55 1f       	adc	r21, r21
    296e:	62 9f       	mul	r22, r18
    2970:	f0 01       	movw	r30, r0
    2972:	72 9f       	mul	r23, r18
    2974:	bb 27       	eor	r27, r27
    2976:	f0 0d       	add	r31, r0
    2978:	b1 1d       	adc	r27, r1
    297a:	63 9f       	mul	r22, r19
    297c:	aa 27       	eor	r26, r26
    297e:	f0 0d       	add	r31, r0
    2980:	b1 1d       	adc	r27, r1
    2982:	aa 1f       	adc	r26, r26
    2984:	64 9f       	mul	r22, r20
    2986:	66 27       	eor	r22, r22
    2988:	b0 0d       	add	r27, r0
    298a:	a1 1d       	adc	r26, r1
    298c:	66 1f       	adc	r22, r22
    298e:	82 9f       	mul	r24, r18
    2990:	22 27       	eor	r18, r18
    2992:	b0 0d       	add	r27, r0
    2994:	a1 1d       	adc	r26, r1
    2996:	62 1f       	adc	r22, r18
    2998:	73 9f       	mul	r23, r19
    299a:	b0 0d       	add	r27, r0
    299c:	a1 1d       	adc	r26, r1
    299e:	62 1f       	adc	r22, r18
    29a0:	83 9f       	mul	r24, r19
    29a2:	a0 0d       	add	r26, r0
    29a4:	61 1d       	adc	r22, r1
    29a6:	22 1f       	adc	r18, r18
    29a8:	74 9f       	mul	r23, r20
    29aa:	33 27       	eor	r19, r19
    29ac:	a0 0d       	add	r26, r0
    29ae:	61 1d       	adc	r22, r1
    29b0:	23 1f       	adc	r18, r19
    29b2:	84 9f       	mul	r24, r20
    29b4:	60 0d       	add	r22, r0
    29b6:	21 1d       	adc	r18, r1
    29b8:	82 2f       	mov	r24, r18
    29ba:	76 2f       	mov	r23, r22
    29bc:	6a 2f       	mov	r22, r26
    29be:	11 24       	eor	r1, r1
    29c0:	9f 57       	subi	r25, 0x7F	; 127
    29c2:	50 40       	sbci	r21, 0x00	; 0
    29c4:	8a f0       	brmi	.+34     	; 0x29e8 <__mulsf3_pse+0x84>
    29c6:	e1 f0       	breq	.+56     	; 0x2a00 <__mulsf3_pse+0x9c>
    29c8:	88 23       	and	r24, r24
    29ca:	4a f0       	brmi	.+18     	; 0x29de <__mulsf3_pse+0x7a>
    29cc:	ee 0f       	add	r30, r30
    29ce:	ff 1f       	adc	r31, r31
    29d0:	bb 1f       	adc	r27, r27
    29d2:	66 1f       	adc	r22, r22
    29d4:	77 1f       	adc	r23, r23
    29d6:	88 1f       	adc	r24, r24
    29d8:	91 50       	subi	r25, 0x01	; 1
    29da:	50 40       	sbci	r21, 0x00	; 0
    29dc:	a9 f7       	brne	.-22     	; 0x29c8 <__mulsf3_pse+0x64>
    29de:	9e 3f       	cpi	r25, 0xFE	; 254
    29e0:	51 05       	cpc	r21, r1
    29e2:	70 f0       	brcs	.+28     	; 0x2a00 <__mulsf3_pse+0x9c>
    29e4:	5c cf       	rjmp	.-328    	; 0x289e <__fp_inf>
    29e6:	a6 cf       	rjmp	.-180    	; 0x2934 <__fp_szero>
    29e8:	5f 3f       	cpi	r21, 0xFF	; 255
    29ea:	ec f3       	brlt	.-6      	; 0x29e6 <__mulsf3_pse+0x82>
    29ec:	98 3e       	cpi	r25, 0xE8	; 232
    29ee:	dc f3       	brlt	.-10     	; 0x29e6 <__mulsf3_pse+0x82>
    29f0:	86 95       	lsr	r24
    29f2:	77 95       	ror	r23
    29f4:	67 95       	ror	r22
    29f6:	b7 95       	ror	r27
    29f8:	f7 95       	ror	r31
    29fa:	e7 95       	ror	r30
    29fc:	9f 5f       	subi	r25, 0xFF	; 255
    29fe:	c1 f7       	brne	.-16     	; 0x29f0 <__mulsf3_pse+0x8c>
    2a00:	fe 2b       	or	r31, r30
    2a02:	88 0f       	add	r24, r24
    2a04:	91 1d       	adc	r25, r1
    2a06:	96 95       	lsr	r25
    2a08:	87 95       	ror	r24
    2a0a:	97 f9       	bld	r25, 7
    2a0c:	08 95       	ret

00002a0e <__tablejump2__>:
    2a0e:	ee 0f       	add	r30, r30
    2a10:	ff 1f       	adc	r31, r31

00002a12 <__tablejump__>:
    2a12:	05 90       	lpm	r0, Z+
    2a14:	f4 91       	lpm	r31, Z
    2a16:	e0 2d       	mov	r30, r0
    2a18:	09 94       	ijmp

00002a1a <__umulhisi3>:
    2a1a:	a2 9f       	mul	r26, r18
    2a1c:	b0 01       	movw	r22, r0
    2a1e:	b3 9f       	mul	r27, r19
    2a20:	c0 01       	movw	r24, r0
    2a22:	a3 9f       	mul	r26, r19
    2a24:	70 0d       	add	r23, r0
    2a26:	81 1d       	adc	r24, r1
    2a28:	11 24       	eor	r1, r1
    2a2a:	91 1d       	adc	r25, r1
    2a2c:	b2 9f       	mul	r27, r18
    2a2e:	70 0d       	add	r23, r0
    2a30:	81 1d       	adc	r24, r1
    2a32:	11 24       	eor	r1, r1
    2a34:	91 1d       	adc	r25, r1
    2a36:	08 95       	ret

00002a38 <__itoa_ncheck>:
    2a38:	bb 27       	eor	r27, r27
    2a3a:	4a 30       	cpi	r20, 0x0A	; 10
    2a3c:	31 f4       	brne	.+12     	; 0x2a4a <__itoa_ncheck+0x12>
    2a3e:	99 23       	and	r25, r25
    2a40:	22 f4       	brpl	.+8      	; 0x2a4a <__itoa_ncheck+0x12>
    2a42:	bd e2       	ldi	r27, 0x2D	; 45
    2a44:	90 95       	com	r25
    2a46:	81 95       	neg	r24
    2a48:	9f 4f       	sbci	r25, 0xFF	; 255
    2a4a:	01 c0       	rjmp	.+2      	; 0x2a4e <__utoa_common>

00002a4c <__utoa_ncheck>:
    2a4c:	bb 27       	eor	r27, r27

00002a4e <__utoa_common>:
    2a4e:	fb 01       	movw	r30, r22
    2a50:	55 27       	eor	r21, r21
    2a52:	aa 27       	eor	r26, r26
    2a54:	88 0f       	add	r24, r24
    2a56:	99 1f       	adc	r25, r25
    2a58:	aa 1f       	adc	r26, r26
    2a5a:	a4 17       	cp	r26, r20
    2a5c:	10 f0       	brcs	.+4      	; 0x2a62 <__utoa_common+0x14>
    2a5e:	a4 1b       	sub	r26, r20
    2a60:	83 95       	inc	r24
    2a62:	50 51       	subi	r21, 0x10	; 16
    2a64:	b9 f7       	brne	.-18     	; 0x2a54 <__utoa_common+0x6>
    2a66:	a0 5d       	subi	r26, 0xD0	; 208
    2a68:	aa 33       	cpi	r26, 0x3A	; 58
    2a6a:	08 f0       	brcs	.+2      	; 0x2a6e <__utoa_common+0x20>
    2a6c:	a9 5d       	subi	r26, 0xD9	; 217
    2a6e:	a1 93       	st	Z+, r26
    2a70:	00 97       	sbiw	r24, 0x00	; 0
    2a72:	79 f7       	brne	.-34     	; 0x2a52 <__utoa_common+0x4>
    2a74:	b1 11       	cpse	r27, r1
    2a76:	b1 93       	st	Z+, r27
    2a78:	11 92       	st	Z+, r1
    2a7a:	cb 01       	movw	r24, r22
    2a7c:	00 c0       	rjmp	.+0      	; 0x2a7e <strrev>

00002a7e <strrev>:
    2a7e:	dc 01       	movw	r26, r24
    2a80:	fc 01       	movw	r30, r24
    2a82:	67 2f       	mov	r22, r23
    2a84:	71 91       	ld	r23, Z+
    2a86:	77 23       	and	r23, r23
    2a88:	e1 f7       	brne	.-8      	; 0x2a82 <strrev+0x4>
    2a8a:	32 97       	sbiw	r30, 0x02	; 2
    2a8c:	04 c0       	rjmp	.+8      	; 0x2a96 <strrev+0x18>
    2a8e:	7c 91       	ld	r23, X
    2a90:	6d 93       	st	X+, r22
    2a92:	70 83       	st	Z, r23
    2a94:	62 91       	ld	r22, -Z
    2a96:	ae 17       	cp	r26, r30
    2a98:	bf 07       	cpc	r27, r31
    2a9a:	c8 f3       	brcs	.-14     	; 0x2a8e <strrev+0x10>
    2a9c:	08 95       	ret

00002a9e <_exit>:
    2a9e:	f8 94       	cli

00002aa0 <__stop_program>:
    2aa0:	ff cf       	rjmp	.-2      	; 0x2aa0 <__stop_program>
